Component: ARM Compiler 5.06 update 7 (build 960) Tool: armlink [4d3601]

==============================================================================

Section Cross References

    stm32f4xx_adc.o(i.ADC_DeInit) refers to stm32f4xx_rcc.o(i.RCC_APB2PeriphResetCmd) for RCC_APB2PeriphResetCmd
    stm32f4xx_dac.o(i.DAC_DeInit) refers to stm32f4xx_rcc.o(i.RCC_APB1PeriphResetCmd) for RCC_APB1PeriphResetCmd
    stm32f4xx_dma2d.o(i.DMA2D_DeInit) refers to stm32f4xx_rcc.o(i.RCC_AHB1PeriphResetCmd) for RCC_AHB1PeriphResetCmd
    stm32f4xx_flash.o(i.FLASH_EraseAllBank1Sectors) refers to stm32f4xx_flash.o(i.FLASH_WaitForLastOperation) for FLASH_WaitForLastOperation
    stm32f4xx_flash.o(i.FLASH_EraseAllBank2Sectors) refers to stm32f4xx_flash.o(i.FLASH_WaitForLastOperation) for FLASH_WaitForLastOperation
    stm32f4xx_flash.o(i.FLASH_EraseAllSectors) refers to stm32f4xx_flash.o(i.FLASH_WaitForLastOperation) for FLASH_WaitForLastOperation
    stm32f4xx_flash.o(i.FLASH_EraseSector) refers to stm32f4xx_flash.o(i.FLASH_WaitForLastOperation) for FLASH_WaitForLastOperation
    stm32f4xx_flash.o(i.FLASH_OB_Launch) refers to stm32f4xx_flash.o(i.FLASH_WaitForLastOperation) for FLASH_WaitForLastOperation
    stm32f4xx_flash.o(i.FLASH_OB_PCROP1Config) refers to stm32f4xx_flash.o(i.FLASH_WaitForLastOperation) for FLASH_WaitForLastOperation
    stm32f4xx_flash.o(i.FLASH_OB_PCROPConfig) refers to stm32f4xx_flash.o(i.FLASH_WaitForLastOperation) for FLASH_WaitForLastOperation
    stm32f4xx_flash.o(i.FLASH_OB_RDPConfig) refers to stm32f4xx_flash.o(i.FLASH_WaitForLastOperation) for FLASH_WaitForLastOperation
    stm32f4xx_flash.o(i.FLASH_OB_UserConfig) refers to stm32f4xx_flash.o(i.FLASH_WaitForLastOperation) for FLASH_WaitForLastOperation
    stm32f4xx_flash.o(i.FLASH_OB_WRP1Config) refers to stm32f4xx_flash.o(i.FLASH_WaitForLastOperation) for FLASH_WaitForLastOperation
    stm32f4xx_flash.o(i.FLASH_OB_WRPConfig) refers to stm32f4xx_flash.o(i.FLASH_WaitForLastOperation) for FLASH_WaitForLastOperation
    stm32f4xx_flash.o(i.FLASH_ProgramByte) refers to stm32f4xx_flash.o(i.FLASH_WaitForLastOperation) for FLASH_WaitForLastOperation
    stm32f4xx_flash.o(i.FLASH_ProgramDoubleWord) refers to stm32f4xx_flash.o(i.FLASH_WaitForLastOperation) for FLASH_WaitForLastOperation
    stm32f4xx_flash.o(i.FLASH_ProgramHalfWord) refers to stm32f4xx_flash.o(i.FLASH_WaitForLastOperation) for FLASH_WaitForLastOperation
    stm32f4xx_flash.o(i.FLASH_ProgramWord) refers to stm32f4xx_flash.o(i.FLASH_WaitForLastOperation) for FLASH_WaitForLastOperation
    stm32f4xx_flash.o(i.FLASH_WaitForLastOperation) refers to stm32f4xx_flash.o(i.FLASH_GetStatus) for FLASH_GetStatus
    stm32f4xx_gpio.o(i.GPIO_DeInit) refers to stm32f4xx_rcc.o(i.RCC_AHB1PeriphResetCmd) for RCC_AHB1PeriphResetCmd
    stm32f4xx_pwr.o(i.PWR_DeInit) refers to stm32f4xx_rcc.o(i.RCC_APB1PeriphResetCmd) for RCC_APB1PeriphResetCmd
    stm32f4xx_rcc.o(i.RCC_GetClocksFreq) refers to stm32f4xx_rcc.o(.data) for .data
    stm32f4xx_rcc.o(i.RCC_WaitForHSEStartUp) refers to stm32f4xx_rcc.o(i.RCC_GetFlagStatus) for RCC_GetFlagStatus
    stm32f4xx_rtc.o(i.RTC_CoarseCalibCmd) refers to stm32f4xx_rtc.o(i.RTC_EnterInitMode) for RTC_EnterInitMode
    stm32f4xx_rtc.o(i.RTC_CoarseCalibCmd) refers to stm32f4xx_rtc.o(i.RTC_ExitInitMode) for RTC_ExitInitMode
    stm32f4xx_rtc.o(i.RTC_CoarseCalibConfig) refers to stm32f4xx_rtc.o(i.RTC_EnterInitMode) for RTC_EnterInitMode
    stm32f4xx_rtc.o(i.RTC_CoarseCalibConfig) refers to stm32f4xx_rtc.o(i.RTC_ExitInitMode) for RTC_ExitInitMode
    stm32f4xx_rtc.o(i.RTC_DeInit) refers to stm32f4xx_rtc.o(i.RTC_EnterInitMode) for RTC_EnterInitMode
    stm32f4xx_rtc.o(i.RTC_DeInit) refers to stm32f4xx_rtc.o(i.RTC_WaitForSynchro) for RTC_WaitForSynchro
    stm32f4xx_rtc.o(i.RTC_GetAlarm) refers to stm32f4xx_rtc.o(i.RTC_Bcd2ToByte) for RTC_Bcd2ToByte
    stm32f4xx_rtc.o(i.RTC_GetDate) refers to stm32f4xx_rtc.o(i.RTC_Bcd2ToByte) for RTC_Bcd2ToByte
    stm32f4xx_rtc.o(i.RTC_GetTime) refers to stm32f4xx_rtc.o(i.RTC_Bcd2ToByte) for RTC_Bcd2ToByte
    stm32f4xx_rtc.o(i.RTC_GetTimeStamp) refers to stm32f4xx_rtc.o(i.RTC_Bcd2ToByte) for RTC_Bcd2ToByte
    stm32f4xx_rtc.o(i.RTC_Init) refers to stm32f4xx_rtc.o(i.RTC_EnterInitMode) for RTC_EnterInitMode
    stm32f4xx_rtc.o(i.RTC_Init) refers to stm32f4xx_rtc.o(i.RTC_ExitInitMode) for RTC_ExitInitMode
    stm32f4xx_rtc.o(i.RTC_RefClockCmd) refers to stm32f4xx_rtc.o(i.RTC_EnterInitMode) for RTC_EnterInitMode
    stm32f4xx_rtc.o(i.RTC_RefClockCmd) refers to stm32f4xx_rtc.o(i.RTC_ExitInitMode) for RTC_ExitInitMode
    stm32f4xx_rtc.o(i.RTC_SetAlarm) refers to stm32f4xx_rtc.o(i.RTC_Bcd2ToByte) for RTC_Bcd2ToByte
    stm32f4xx_rtc.o(i.RTC_SetAlarm) refers to stm32f4xx_rtc.o(i.RTC_ByteToBcd2) for RTC_ByteToBcd2
    stm32f4xx_rtc.o(i.RTC_SetDate) refers to stm32f4xx_rtc.o(i.RTC_Bcd2ToByte) for RTC_Bcd2ToByte
    stm32f4xx_rtc.o(i.RTC_SetDate) refers to stm32f4xx_rtc.o(i.RTC_ByteToBcd2) for RTC_ByteToBcd2
    stm32f4xx_rtc.o(i.RTC_SetDate) refers to stm32f4xx_rtc.o(i.RTC_EnterInitMode) for RTC_EnterInitMode
    stm32f4xx_rtc.o(i.RTC_SetDate) refers to stm32f4xx_rtc.o(i.RTC_ExitInitMode) for RTC_ExitInitMode
    stm32f4xx_rtc.o(i.RTC_SetDate) refers to stm32f4xx_rtc.o(i.RTC_WaitForSynchro) for RTC_WaitForSynchro
    stm32f4xx_rtc.o(i.RTC_SetTime) refers to stm32f4xx_rtc.o(i.RTC_Bcd2ToByte) for RTC_Bcd2ToByte
    stm32f4xx_rtc.o(i.RTC_SetTime) refers to stm32f4xx_rtc.o(i.RTC_ByteToBcd2) for RTC_ByteToBcd2
    stm32f4xx_rtc.o(i.RTC_SetTime) refers to stm32f4xx_rtc.o(i.RTC_EnterInitMode) for RTC_EnterInitMode
    stm32f4xx_rtc.o(i.RTC_SetTime) refers to stm32f4xx_rtc.o(i.RTC_ExitInitMode) for RTC_ExitInitMode
    stm32f4xx_rtc.o(i.RTC_SetTime) refers to stm32f4xx_rtc.o(i.RTC_WaitForSynchro) for RTC_WaitForSynchro
    stm32f4xx_rtc.o(i.RTC_SynchroShiftConfig) refers to stm32f4xx_rtc.o(i.RTC_WaitForSynchro) for RTC_WaitForSynchro
    stm32f4xx_spi.o(i.SPI_I2S_DeInit) refers to stm32f4xx_rcc.o(i.RCC_APB1PeriphResetCmd) for RCC_APB1PeriphResetCmd
    stm32f4xx_spi.o(i.SPI_I2S_DeInit) refers to stm32f4xx_rcc.o(i.RCC_APB2PeriphResetCmd) for RCC_APB2PeriphResetCmd
    stm32f4xx_syscfg.o(i.SYSCFG_DeInit) refers to stm32f4xx_rcc.o(i.RCC_APB2PeriphResetCmd) for RCC_APB2PeriphResetCmd
    stm32f4xx_tim.o(i.TIM_DeInit) refers to stm32f4xx_rcc.o(i.RCC_APB2PeriphResetCmd) for RCC_APB2PeriphResetCmd
    stm32f4xx_tim.o(i.TIM_DeInit) refers to stm32f4xx_rcc.o(i.RCC_APB1PeriphResetCmd) for RCC_APB1PeriphResetCmd
    stm32f4xx_tim.o(i.TIM_ETRClockMode1Config) refers to stm32f4xx_tim.o(i.TIM_ETRConfig) for TIM_ETRConfig
    stm32f4xx_tim.o(i.TIM_ETRClockMode2Config) refers to stm32f4xx_tim.o(i.TIM_ETRConfig) for TIM_ETRConfig
    stm32f4xx_tim.o(i.TIM_ICInit) refers to stm32f4xx_tim.o(i.TIM_SetIC4Prescaler) for TIM_SetIC4Prescaler
    stm32f4xx_tim.o(i.TIM_ICInit) refers to stm32f4xx_tim.o(i.TI1_Config) for TI1_Config
    stm32f4xx_tim.o(i.TIM_ICInit) refers to stm32f4xx_tim.o(i.TIM_SetIC1Prescaler) for TIM_SetIC1Prescaler
    stm32f4xx_tim.o(i.TIM_ICInit) refers to stm32f4xx_tim.o(i.TI2_Config) for TI2_Config
    stm32f4xx_tim.o(i.TIM_ICInit) refers to stm32f4xx_tim.o(i.TIM_SetIC2Prescaler) for TIM_SetIC2Prescaler
    stm32f4xx_tim.o(i.TIM_ICInit) refers to stm32f4xx_tim.o(i.TIM_SetIC3Prescaler) for TIM_SetIC3Prescaler
    stm32f4xx_tim.o(i.TIM_ITRxExternalClockConfig) refers to stm32f4xx_tim.o(i.TIM_SelectInputTrigger) for TIM_SelectInputTrigger
    stm32f4xx_tim.o(i.TIM_PWMIConfig) refers to stm32f4xx_tim.o(i.TI2_Config) for TI2_Config
    stm32f4xx_tim.o(i.TIM_PWMIConfig) refers to stm32f4xx_tim.o(i.TIM_SetIC2Prescaler) for TIM_SetIC2Prescaler
    stm32f4xx_tim.o(i.TIM_PWMIConfig) refers to stm32f4xx_tim.o(i.TI1_Config) for TI1_Config
    stm32f4xx_tim.o(i.TIM_PWMIConfig) refers to stm32f4xx_tim.o(i.TIM_SetIC1Prescaler) for TIM_SetIC1Prescaler
    stm32f4xx_tim.o(i.TIM_TIxExternalClockConfig) refers to stm32f4xx_tim.o(i.TI1_Config) for TI1_Config
    stm32f4xx_tim.o(i.TIM_TIxExternalClockConfig) refers to stm32f4xx_tim.o(i.TIM_SelectInputTrigger) for TIM_SelectInputTrigger
    stm32f4xx_tim.o(i.TIM_TIxExternalClockConfig) refers to stm32f4xx_tim.o(i.TI2_Config) for TI2_Config
    stm32f4xx_usart.o(i.USART_DeInit) refers to stm32f4xx_rcc.o(i.RCC_APB2PeriphResetCmd) for RCC_APB2PeriphResetCmd
    stm32f4xx_usart.o(i.USART_DeInit) refers to stm32f4xx_rcc.o(i.RCC_APB1PeriphResetCmd) for RCC_APB1PeriphResetCmd
    stm32f4xx_usart.o(i.USART_Init) refers to stm32f4xx_rcc.o(i.RCC_GetClocksFreq) for RCC_GetClocksFreq
    stm32f4xx_wwdg.o(i.WWDG_DeInit) refers to stm32f4xx_rcc.o(i.RCC_APB1PeriphResetCmd) for RCC_APB1PeriphResetCmd
    stm32f4xx_it.o(i.SysTick_Handler) refers to stm32f4xx_it.o(.data) for .data
    stm32f4xx_it.o(i.delay_ms) refers to stm32f4xx_it.o(.data) for .data
    stm32f4xx_it.o(i.delay_us) refers to stm32f4xx_it.o(.data) for .data
    system_stm32f4xx.o(i.SystemCoreClockUpdate) refers to system_stm32f4xx.o(.data) for .data
    system_stm32f4xx.o(i.SystemInit) refers to system_stm32f4xx.o(i.SetSysClock) for SetSysClock
    startup_stm32f40_41xxx.o(STACK) refers (Special) to heapauxi.o(.text) for __use_two_region_memory
    startup_stm32f40_41xxx.o(HEAP) refers (Special) to heapauxi.o(.text) for __use_two_region_memory
    startup_stm32f40_41xxx.o(RESET) refers (Special) to heapauxi.o(.text) for __use_two_region_memory
    startup_stm32f40_41xxx.o(RESET) refers to startup_stm32f40_41xxx.o(STACK) for __initial_sp
    startup_stm32f40_41xxx.o(RESET) refers to startup_stm32f40_41xxx.o(.text) for Reset_Handler
    startup_stm32f40_41xxx.o(RESET) refers to stm32f4xx_it.o(i.NMI_Handler) for NMI_Handler
    startup_stm32f40_41xxx.o(RESET) refers to stm32f4xx_it.o(i.HardFault_Handler) for HardFault_Handler
    startup_stm32f40_41xxx.o(RESET) refers to stm32f4xx_it.o(i.MemManage_Handler) for MemManage_Handler
    startup_stm32f40_41xxx.o(RESET) refers to stm32f4xx_it.o(i.BusFault_Handler) for BusFault_Handler
    startup_stm32f40_41xxx.o(RESET) refers to stm32f4xx_it.o(i.UsageFault_Handler) for UsageFault_Handler
    startup_stm32f40_41xxx.o(RESET) refers to stm32f4xx_it.o(i.SVC_Handler) for SVC_Handler
    startup_stm32f40_41xxx.o(RESET) refers to stm32f4xx_it.o(i.DebugMon_Handler) for DebugMon_Handler
    startup_stm32f40_41xxx.o(RESET) refers to stm32f4xx_it.o(i.PendSV_Handler) for PendSV_Handler
    startup_stm32f40_41xxx.o(RESET) refers to stm32f4xx_it.o(i.SysTick_Handler) for SysTick_Handler
    startup_stm32f40_41xxx.o(RESET) refers to key.o(i.EXTI0_IRQHandler) for EXTI0_IRQHandler
    startup_stm32f40_41xxx.o(RESET) refers to key.o(i.EXTI1_IRQHandler) for EXTI1_IRQHandler
    startup_stm32f40_41xxx.o(RESET) refers to key.o(i.EXTI4_IRQHandler) for EXTI4_IRQHandler
    startup_stm32f40_41xxx.o(RESET) refers to key.o(i.EXTI9_5_IRQHandler) for EXTI9_5_IRQHandler
    startup_stm32f40_41xxx.o(RESET) refers to timer.o(i.TIM5_IRQHandler) for TIM5_IRQHandler
    startup_stm32f40_41xxx.o(.text) refers (Special) to heapauxi.o(.text) for __use_two_region_memory
    startup_stm32f40_41xxx.o(.text) refers to system_stm32f4xx.o(i.SystemInit) for SystemInit
    startup_stm32f40_41xxx.o(.text) refers to __main.o(!!!main) for __main
    startup_stm32f40_41xxx.o(.text) refers to startup_stm32f40_41xxx.o(HEAP) for Heap_Mem
    startup_stm32f40_41xxx.o(.text) refers to startup_stm32f40_41xxx.o(STACK) for Stack_Mem
    main.o(i.main) refers to rt_memcpy_w.o(.text) for __aeabi_memcpy4
    main.o(i.main) refers to misc.o(i.NVIC_PriorityGroupConfig) for NVIC_PriorityGroupConfig
    main.o(i.main) refers to msg_deal.o(i.shell_init) for shell_init
    main.o(i.main) refers to led.o(i.PWM_LEDInit) for PWM_LEDInit
    main.o(i.main) refers to key.o(i.KEY_Init) for KEY_Init
    main.o(i.main) refers to timer.o(i.TIM5_Init) for TIM5_Init
    main.o(i.main) refers to ht_sensor.o(i.HTSensor_Init) for HTSensor_Init
    main.o(i.main) refers to oled.o(i.OLED_Init) for OLED_Init
    main.o(i.main) refers to rtc.o(i.My_RTC_Init) for My_RTC_Init
    main.o(i.main) refers to bluetooth.o(i.ble_init) for ble_init
    main.o(i.main) refers to wifi.o(i.init_wifi_network) for init_wifi_network
    main.o(i.main) refers to nrf24l01.o(i.NRF24L01_Init) for NRF24L01_Init
    main.o(i.main) refers to iwdg.o(i.IWDG_Init) for IWDG_Init
    main.o(i.main) refers to uart.o(i.rt_kprintf) for rt_kprintf
    main.o(i.main) refers to uart.o(i.rt_kprintf2) for rt_kprintf2
    main.o(i.main) refers to iwdg.o(i.IWDG_Feed) for IWDG_Feed
    main.o(i.main) refers to key.o(i.KEYService) for KEYService
    main.o(i.main) refers to nrf24l01.o(i.nrf_communication_service_msg_process) for nrf_communication_service_msg_process
    main.o(i.main) refers to bluetooth.o(i.bluetooth_msg_porcess) for bluetooth_msg_porcess
    main.o(i.main) refers to msg_deal.o(i.shell_process) for shell_process
    main.o(i.main) refers to msg_deal.o(i.periodic_task_process) for periodic_task_process
    main.o(i.main) refers to wifi.o(i.wifi_msg_process) for wifi_msg_process
    main.o(i.main) refers to show.o(i.show_interface_oled) for show_interface_oled
    main.o(i.main) refers to main.o(.constdata) for .constdata
    main.o(i.main) refers to system_stm32f4xx.o(.data) for SystemCoreClock
    led.o(i.LED_BreathingLight) refers to stm32f4xx_tim.o(i.TIM_SetCompare2) for TIM_SetCompare2
    led.o(i.LED_BreathingLight) refers to stm32f4xx_tim.o(i.TIM_SetCompare3) for TIM_SetCompare3
    led.o(i.LED_BreathingLight) refers to stm32f4xx_tim.o(i.TIM_SetCompare4) for TIM_SetCompare4
    led.o(i.LED_BreathingLight) refers to led.o(.data) for .data
    led.o(i.LED_Init) refers to stm32f4xx_rcc.o(i.RCC_AHB1PeriphClockCmd) for RCC_AHB1PeriphClockCmd
    led.o(i.LED_Init) refers to stm32f4xx_gpio.o(i.GPIO_Init) for GPIO_Init
    led.o(i.LedBlink) refers to stm32f4xx_gpio.o(i.GPIO_ResetBits) for GPIO_ResetBits
    led.o(i.LedBlink) refers to stm32f4xx_gpio.o(i.GPIO_SetBits) for GPIO_SetBits
    led.o(i.LedBlink) refers to msg_deal.o(.bss) for system_var
    led.o(i.LedBlink) refers to led.o(.data) for .data
    led.o(i.LedOnD1) refers to stm32f4xx_gpio.o(i.GPIO_SetBits) for GPIO_SetBits
    led.o(i.LedOnD2) refers to stm32f4xx_gpio.o(i.GPIO_SetBits) for GPIO_SetBits
    led.o(i.LedOnD3) refers to stm32f4xx_gpio.o(i.GPIO_SetBits) for GPIO_SetBits
    led.o(i.LedOnD4) refers to stm32f4xx_gpio.o(i.GPIO_SetBits) for GPIO_SetBits
    led.o(i.PWM_LEDInit) refers to stm32f4xx_rcc.o(i.RCC_APB2PeriphClockCmd) for RCC_APB2PeriphClockCmd
    led.o(i.PWM_LEDInit) refers to stm32f4xx_rcc.o(i.RCC_AHB1PeriphClockCmd) for RCC_AHB1PeriphClockCmd
    led.o(i.PWM_LEDInit) refers to stm32f4xx_gpio.o(i.GPIO_Init) for GPIO_Init
    led.o(i.PWM_LEDInit) refers to stm32f4xx_gpio.o(i.GPIO_PinAFConfig) for GPIO_PinAFConfig
    led.o(i.PWM_LEDInit) refers to stm32f4xx_tim.o(i.TIM_TimeBaseInit) for TIM_TimeBaseInit
    led.o(i.PWM_LEDInit) refers to stm32f4xx_tim.o(i.TIM_OC2Init) for TIM_OC2Init
    led.o(i.PWM_LEDInit) refers to stm32f4xx_tim.o(i.TIM_OC3Init) for TIM_OC3Init
    led.o(i.PWM_LEDInit) refers to stm32f4xx_tim.o(i.TIM_OC4Init) for TIM_OC4Init
    led.o(i.PWM_LEDInit) refers to stm32f4xx_tim.o(i.TIM_OC2PreloadConfig) for TIM_OC2PreloadConfig
    led.o(i.PWM_LEDInit) refers to stm32f4xx_tim.o(i.TIM_OC3PreloadConfig) for TIM_OC3PreloadConfig
    led.o(i.PWM_LEDInit) refers to stm32f4xx_tim.o(i.TIM_OC4PreloadConfig) for TIM_OC4PreloadConfig
    led.o(i.PWM_LEDInit) refers to stm32f4xx_tim.o(i.TIM_ARRPreloadConfig) for TIM_ARRPreloadConfig
    led.o(i.PWM_LEDInit) refers to stm32f4xx_tim.o(i.TIM_Cmd) for TIM_Cmd
    led.o(i.PWM_LEDInit) refers to stm32f4xx_tim.o(i.TIM_CtrlPWMOutputs) for TIM_CtrlPWMOutputs
    oled.o(i.OLED_Clear) refers to oled.o(i.OLED_WR_Byte) for OLED_WR_Byte
    oled.o(i.OLED_Display_Off) refers to oled.o(i.OLED_WR_Byte) for OLED_WR_Byte
    oled.o(i.OLED_Display_On) refers to oled.o(i.OLED_WR_Byte) for OLED_WR_Byte
    oled.o(i.OLED_DrawBMP) refers to oled.o(i.OLED_Set_Pos) for OLED_Set_Pos
    oled.o(i.OLED_DrawBMP) refers to oled.o(i.OLED_WR_Byte) for OLED_WR_Byte
    oled.o(i.OLED_IOInit) refers to stm32f4xx_rcc.o(i.RCC_AHB1PeriphClockCmd) for RCC_AHB1PeriphClockCmd
    oled.o(i.OLED_IOInit) refers to stm32f4xx_gpio.o(i.GPIO_Init) for GPIO_Init
    oled.o(i.OLED_IOInit) refers to stm32f4xx_gpio.o(i.GPIO_SetBits) for GPIO_SetBits
    oled.o(i.OLED_Init) refers to oled.o(i.OLED_IOInit) for OLED_IOInit
    oled.o(i.OLED_Init) refers to stm32f4xx_gpio.o(i.GPIO_SetBits) for GPIO_SetBits
    oled.o(i.OLED_Init) refers to stm32f4xx_it.o(i.delay_ms) for delay_ms
    oled.o(i.OLED_Init) refers to stm32f4xx_gpio.o(i.GPIO_ResetBits) for GPIO_ResetBits
    oled.o(i.OLED_Init) refers to oled.o(i.OLED_WR_Byte) for OLED_WR_Byte
    oled.o(i.OLED_Init) refers to oled.o(i.OLED_Clear) for OLED_Clear
    oled.o(i.OLED_Init) refers to oled.o(i.OLED_Set_Pos) for OLED_Set_Pos
    oled.o(i.OLED_Init) refers to oled.o(i.OLED_Display_On) for OLED_Display_On
    oled.o(i.OLED_Set_Pos) refers to oled.o(i.OLED_WR_Byte) for OLED_WR_Byte
    oled.o(i.OLED_ShowCHinese) refers to oled.o(i.OLED_Set_Pos) for OLED_Set_Pos
    oled.o(i.OLED_ShowCHinese) refers to oled.o(i.OLED_WR_Byte) for OLED_WR_Byte
    oled.o(i.OLED_ShowChar) refers to oled.o(i.OLED_Set_Pos) for OLED_Set_Pos
    oled.o(i.OLED_ShowChar) refers to oled.o(i.OLED_WR_Byte) for OLED_WR_Byte
    oled.o(i.OLED_ShowChar) refers to oledfont.o(.constdata) for F8X16
    oled.o(i.OLED_ShowNum) refers to oled.o(i.oled_pow) for oled_pow
    oled.o(i.OLED_ShowNum) refers to oled.o(i.OLED_ShowChar) for OLED_ShowChar
    oled.o(i.OLED_ShowString) refers to oled.o(i.OLED_ShowChar) for OLED_ShowChar
    oled.o(i.OLED_WR_Byte) refers to stm32f4xx_gpio.o(i.GPIO_SetBits) for GPIO_SetBits
    oled.o(i.OLED_WR_Byte) refers to stm32f4xx_gpio.o(i.GPIO_ResetBits) for GPIO_ResetBits
    oled.o(i.SPI2Init) refers to stm32f4xx_spi.o(i.SPI_I2S_DeInit) for SPI_I2S_DeInit
    oled.o(i.SPI2Init) refers to stm32f4xx_rcc.o(i.RCC_APB1PeriphClockCmd) for RCC_APB1PeriphClockCmd
    oled.o(i.SPI2Init) refers to oled.o(i.Spi2IOInit) for Spi2IOInit
    oled.o(i.SPI2Init) refers to stm32f4xx_spi.o(i.SPI_Init) for SPI_Init
    oled.o(i.SPI2Init) refers to stm32f4xx_spi.o(i.SPI_Cmd) for SPI_Cmd
    oled.o(i.Spi2IOInit) refers to stm32f4xx_rcc.o(i.RCC_AHB1PeriphClockCmd) for RCC_AHB1PeriphClockCmd
    oled.o(i.Spi2IOInit) refers to stm32f4xx_gpio.o(i.GPIO_PinAFConfig) for GPIO_PinAFConfig
    oled.o(i.Spi2IOInit) refers to stm32f4xx_gpio.o(i.GPIO_Init) for GPIO_Init
    oled.o(i.show_common_string) refers to oled.o(i.show_oled_char) for show_oled_char
    oled.o(i.show_date_str) refers to oled.o(i.OLED_Set_Pos) for OLED_Set_Pos
    oled.o(i.show_date_str) refers to oled.o(i.OLED_WR_Byte) for OLED_WR_Byte
    oled.o(i.show_date_str) refers to oledfont.o(.data) for number_font
    oled.o(i.show_line) refers to oled.o(i.OLED_Set_Pos) for OLED_Set_Pos
    oled.o(i.show_line) refers to oled.o(i.OLED_WR_Byte) for OLED_WR_Byte
    oled.o(i.show_line) refers to oledfont.o(.data) for line_num
    oled.o(i.show_oled_char) refers to oled.o(i.OLED_Set_Pos) for OLED_Set_Pos
    oled.o(i.show_oled_char) refers to oled.o(i.OLED_WR_Byte) for OLED_WR_Byte
    oled.o(i.show_oled_char) refers to oledfont.o(.constdata) for F6x8
    oled.o(i.show_oled_char) refers to oledfont.o(.constdata) for F16X32
    oled.o(i.show_oled_char) refers to oledfont.o(.constdata) for F8X16
    oled.o(i.show_t_rh_string) refers to oled.o(i.show_oled_char) for show_oled_char
    oled.o(i.show_time_str) refers to oled.o(i.show_oled_char) for show_oled_char
    uart.o(i.PrintfIOTPort2) refers to uart.o(i.UART2_SentMsgL) for UART2_SentMsgL
    uart.o(i.PrintfIOTPort3) refers to uart.o(i.UART3_SentMsgL) for UART3_SentMsgL
    uart.o(i.PrintfIOTPort4) refers to uart.o(i.UART4_SentMsgL) for UART4_SentMsgL
    uart.o(i.Printfmsg2) refers to uart.o(i.UART2_SentMsg) for UART2_SentMsg
    uart.o(i.Printfmsg3) refers to uart.o(i.UART3_SentMsg) for UART3_SentMsg
    uart.o(i.Printfmsg4) refers to uart.o(i.UART4_SentMsg) for UART4_SentMsg
    uart.o(i.UART1Init) refers to stm32f4xx_rcc.o(i.RCC_AHB1PeriphClockCmd) for RCC_AHB1PeriphClockCmd
    uart.o(i.UART1Init) refers to stm32f4xx_rcc.o(i.RCC_APB2PeriphClockCmd) for RCC_APB2PeriphClockCmd
    uart.o(i.UART1Init) refers to stm32f4xx_gpio.o(i.GPIO_PinAFConfig) for GPIO_PinAFConfig
    uart.o(i.UART1Init) refers to stm32f4xx_gpio.o(i.GPIO_Init) for GPIO_Init
    uart.o(i.UART1Init) refers to stm32f4xx_usart.o(i.USART_Init) for USART_Init
    uart.o(i.UART1Init) refers to stm32f4xx_usart.o(i.USART_DMACmd) for USART_DMACmd
    uart.o(i.UART1Init) refers to stm32f4xx_usart.o(i.USART_Cmd) for USART_Cmd
    uart.o(i.UART1Init) refers to uart.o(i.UART1_DMA_Init) for UART1_DMA_Init
    uart.o(i.UART1Init) refers to stm32f4xx_dma.o(i.DMA_GetCurrDataCounter) for DMA_GetCurrDataCounter
    uart.o(i.UART1Init) refers to uart.o(.data) for .data
    uart.o(i.UART1Poll) refers to stm32f4xx_dma.o(i.DMA_GetCurrDataCounter) for DMA_GetCurrDataCounter
    uart.o(i.UART1Poll) refers to uart.o(.data) for .data
    uart.o(i.UART1Poll) refers to timer.o(.data) for Systemtime
    uart.o(i.UART1_DMA_Init) refers to stm32f4xx_rcc.o(i.RCC_AHB1PeriphClockCmd) for RCC_AHB1PeriphClockCmd
    uart.o(i.UART1_DMA_Init) refers to stm32f4xx_dma.o(i.DMA_DeInit) for DMA_DeInit
    uart.o(i.UART1_DMA_Init) refers to stm32f4xx_dma.o(i.DMA_Init) for DMA_Init
    uart.o(i.UART1_DMA_Init) refers to stm32f4xx_dma.o(i.DMA_ClearFlag) for DMA_ClearFlag
    uart.o(i.UART1_DMA_Init) refers to stm32f4xx_dma.o(i.DMA_Cmd) for DMA_Cmd
    uart.o(i.UART1_DMA_Init) refers to uart.o(.data) for .data
    uart.o(i.UART1_DMA_Init) refers to uart.o(.bss) for .bss
    uart.o(i.UART1_SentChar) refers to stm32f4xx_usart.o(i.USART_SendData) for USART_SendData
    uart.o(i.UART1_SentChar) refers to stm32f4xx_usart.o(i.USART_GetFlagStatus) for USART_GetFlagStatus
    uart.o(i.UART1_SentMsg) refers to stm32f4xx_dma.o(i.DMA_Cmd) for DMA_Cmd
    uart.o(i.UART1_SentMsg) refers to stm32f4xx_dma.o(i.DMA_SetCurrDataCounter) for DMA_SetCurrDataCounter
    uart.o(i.UART1_SentMsg) refers to stm32f4xx_dma.o(i.DMA_GetFlagStatus) for DMA_GetFlagStatus
    uart.o(i.UART1_SentMsg) refers to stm32f4xx_usart.o(i.USART_GetFlagStatus) for USART_GetFlagStatus
    uart.o(i.UART1_SentMsg) refers to stm32f4xx_dma.o(i.DMA_ClearFlag) for DMA_ClearFlag
    uart.o(i.UART1_SentMsg) refers to stm32f4xx_usart.o(i.USART_ClearFlag) for USART_ClearFlag
    uart.o(i.UART1_SentMsgL) refers to stm32f4xx_dma.o(i.DMA_Cmd) for DMA_Cmd
    uart.o(i.UART1_SentMsgL) refers to stm32f4xx_dma.o(i.DMA_SetCurrDataCounter) for DMA_SetCurrDataCounter
    uart.o(i.UART1_SentMsgL) refers to stm32f4xx_dma.o(i.DMA_GetFlagStatus) for DMA_GetFlagStatus
    uart.o(i.UART1_SentMsgL) refers to stm32f4xx_usart.o(i.USART_GetFlagStatus) for USART_GetFlagStatus
    uart.o(i.UART1_SentMsgL) refers to stm32f4xx_dma.o(i.DMA_ClearFlag) for DMA_ClearFlag
    uart.o(i.UART1_SentMsgL) refers to stm32f4xx_usart.o(i.USART_ClearFlag) for USART_ClearFlag
    uart.o(i.UART2Init) refers to stm32f4xx_rcc.o(i.RCC_AHB1PeriphClockCmd) for RCC_AHB1PeriphClockCmd
    uart.o(i.UART2Init) refers to stm32f4xx_rcc.o(i.RCC_APB1PeriphClockCmd) for RCC_APB1PeriphClockCmd
    uart.o(i.UART2Init) refers to stm32f4xx_gpio.o(i.GPIO_PinAFConfig) for GPIO_PinAFConfig
    uart.o(i.UART2Init) refers to stm32f4xx_gpio.o(i.GPIO_Init) for GPIO_Init
    uart.o(i.UART2Init) refers to stm32f4xx_usart.o(i.USART_Init) for USART_Init
    uart.o(i.UART2Init) refers to stm32f4xx_usart.o(i.USART_DMACmd) for USART_DMACmd
    uart.o(i.UART2Init) refers to stm32f4xx_usart.o(i.USART_Cmd) for USART_Cmd
    uart.o(i.UART2Init) refers to uart.o(i.UART2_DMA_Init) for UART2_DMA_Init
    uart.o(i.UART2Init) refers to stm32f4xx_dma.o(i.DMA_GetCurrDataCounter) for DMA_GetCurrDataCounter
    uart.o(i.UART2Init) refers to uart.o(.data) for .data
    uart.o(i.UART2Poll) refers to stm32f4xx_dma.o(i.DMA_GetCurrDataCounter) for DMA_GetCurrDataCounter
    uart.o(i.UART2Poll) refers to uart.o(i.Uart2Read) for Uart2Read
    uart.o(i.UART2Poll) refers to queue.o(i.queue_in) for queue_in
    uart.o(i.UART2Poll) refers to uart.o(.data) for .data
    uart.o(i.UART2Poll) refers to timer.o(.data) for Systemtime
    uart.o(i.UART2Poll) refers to queue.o(.bss) for ble_queue
    uart.o(i.UART2_DMA_Init) refers to stm32f4xx_rcc.o(i.RCC_AHB1PeriphClockCmd) for RCC_AHB1PeriphClockCmd
    uart.o(i.UART2_DMA_Init) refers to stm32f4xx_dma.o(i.DMA_DeInit) for DMA_DeInit
    uart.o(i.UART2_DMA_Init) refers to stm32f4xx_dma.o(i.DMA_Init) for DMA_Init
    uart.o(i.UART2_DMA_Init) refers to stm32f4xx_dma.o(i.DMA_ClearFlag) for DMA_ClearFlag
    uart.o(i.UART2_DMA_Init) refers to stm32f4xx_dma.o(i.DMA_Cmd) for DMA_Cmd
    uart.o(i.UART2_DMA_Init) refers to uart.o(.data) for .data
    uart.o(i.UART2_DMA_Init) refers to uart.o(.bss) for .bss
    uart.o(i.UART2_SentChar) refers to stm32f4xx_usart.o(i.USART_SendData) for USART_SendData
    uart.o(i.UART2_SentChar) refers to stm32f4xx_usart.o(i.USART_GetFlagStatus) for USART_GetFlagStatus
    uart.o(i.UART2_SentMsg) refers to uart.o(i.Sizeofmsg) for Sizeofmsg
    uart.o(i.UART2_SentMsg) refers to stm32f4xx_dma.o(i.DMA_Cmd) for DMA_Cmd
    uart.o(i.UART2_SentMsg) refers to stm32f4xx_dma.o(i.DMA_SetCurrDataCounter) for DMA_SetCurrDataCounter
    uart.o(i.UART2_SentMsg) refers to stm32f4xx_dma.o(i.DMA_GetFlagStatus) for DMA_GetFlagStatus
    uart.o(i.UART2_SentMsg) refers to stm32f4xx_usart.o(i.USART_GetFlagStatus) for USART_GetFlagStatus
    uart.o(i.UART2_SentMsg) refers to stm32f4xx_dma.o(i.DMA_ClearFlag) for DMA_ClearFlag
    uart.o(i.UART2_SentMsg) refers to stm32f4xx_usart.o(i.USART_ClearFlag) for USART_ClearFlag
    uart.o(i.UART2_SentMsgL) refers to stm32f4xx_dma.o(i.DMA_Cmd) for DMA_Cmd
    uart.o(i.UART2_SentMsgL) refers to stm32f4xx_dma.o(i.DMA_SetCurrDataCounter) for DMA_SetCurrDataCounter
    uart.o(i.UART2_SentMsgL) refers to stm32f4xx_dma.o(i.DMA_GetFlagStatus) for DMA_GetFlagStatus
    uart.o(i.UART2_SentMsgL) refers to stm32f4xx_usart.o(i.USART_GetFlagStatus) for USART_GetFlagStatus
    uart.o(i.UART2_SentMsgL) refers to stm32f4xx_dma.o(i.DMA_ClearFlag) for DMA_ClearFlag
    uart.o(i.UART2_SentMsgL) refers to stm32f4xx_usart.o(i.USART_ClearFlag) for USART_ClearFlag
    uart.o(i.UART3Init) refers to stm32f4xx_rcc.o(i.RCC_AHB1PeriphClockCmd) for RCC_AHB1PeriphClockCmd
    uart.o(i.UART3Init) refers to stm32f4xx_rcc.o(i.RCC_APB1PeriphClockCmd) for RCC_APB1PeriphClockCmd
    uart.o(i.UART3Init) refers to stm32f4xx_gpio.o(i.GPIO_PinAFConfig) for GPIO_PinAFConfig
    uart.o(i.UART3Init) refers to stm32f4xx_gpio.o(i.GPIO_Init) for GPIO_Init
    uart.o(i.UART3Init) refers to stm32f4xx_usart.o(i.USART_Init) for USART_Init
    uart.o(i.UART3Init) refers to stm32f4xx_usart.o(i.USART_DMACmd) for USART_DMACmd
    uart.o(i.UART3Init) refers to stm32f4xx_usart.o(i.USART_Cmd) for USART_Cmd
    uart.o(i.UART3Init) refers to uart.o(i.UART3_DMA_Init) for UART3_DMA_Init
    uart.o(i.UART3Init) refers to stm32f4xx_dma.o(i.DMA_GetCurrDataCounter) for DMA_GetCurrDataCounter
    uart.o(i.UART3Init) refers to uart.o(.data) for .data
    uart.o(i.UART3Poll) refers to stm32f4xx_dma.o(i.DMA_GetCurrDataCounter) for DMA_GetCurrDataCounter
    uart.o(i.UART3Poll) refers to uart.o(i.Uart3Read) for Uart3Read
    uart.o(i.UART3Poll) refers to queue.o(i.queue_in) for queue_in
    uart.o(i.UART3Poll) refers to uart.o(.data) for .data
    uart.o(i.UART3Poll) refers to timer.o(.data) for Systemtime
    uart.o(i.UART3Poll) refers to queue.o(.bss) for nb_queue
    uart.o(i.UART3_DMA_Init) refers to stm32f4xx_rcc.o(i.RCC_AHB1PeriphClockCmd) for RCC_AHB1PeriphClockCmd
    uart.o(i.UART3_DMA_Init) refers to stm32f4xx_dma.o(i.DMA_DeInit) for DMA_DeInit
    uart.o(i.UART3_DMA_Init) refers to stm32f4xx_dma.o(i.DMA_Init) for DMA_Init
    uart.o(i.UART3_DMA_Init) refers to stm32f4xx_dma.o(i.DMA_ClearFlag) for DMA_ClearFlag
    uart.o(i.UART3_DMA_Init) refers to stm32f4xx_dma.o(i.DMA_Cmd) for DMA_Cmd
    uart.o(i.UART3_DMA_Init) refers to uart.o(.data) for .data
    uart.o(i.UART3_DMA_Init) refers to uart.o(.bss) for .bss
    uart.o(i.UART3_SentMsg) refers to uart.o(i.Sizeofmsg) for Sizeofmsg
    uart.o(i.UART3_SentMsg) refers to stm32f4xx_dma.o(i.DMA_Cmd) for DMA_Cmd
    uart.o(i.UART3_SentMsg) refers to stm32f4xx_dma.o(i.DMA_SetCurrDataCounter) for DMA_SetCurrDataCounter
    uart.o(i.UART3_SentMsg) refers to stm32f4xx_dma.o(i.DMA_GetFlagStatus) for DMA_GetFlagStatus
    uart.o(i.UART3_SentMsg) refers to stm32f4xx_usart.o(i.USART_GetFlagStatus) for USART_GetFlagStatus
    uart.o(i.UART3_SentMsg) refers to stm32f4xx_dma.o(i.DMA_ClearFlag) for DMA_ClearFlag
    uart.o(i.UART3_SentMsg) refers to stm32f4xx_usart.o(i.USART_ClearFlag) for USART_ClearFlag
    uart.o(i.UART3_SentMsgL) refers to stm32f4xx_dma.o(i.DMA_Cmd) for DMA_Cmd
    uart.o(i.UART3_SentMsgL) refers to stm32f4xx_dma.o(i.DMA_SetCurrDataCounter) for DMA_SetCurrDataCounter
    uart.o(i.UART3_SentMsgL) refers to stm32f4xx_dma.o(i.DMA_GetFlagStatus) for DMA_GetFlagStatus
    uart.o(i.UART3_SentMsgL) refers to stm32f4xx_usart.o(i.USART_GetFlagStatus) for USART_GetFlagStatus
    uart.o(i.UART3_SentMsgL) refers to stm32f4xx_dma.o(i.DMA_ClearFlag) for DMA_ClearFlag
    uart.o(i.UART3_SentMsgL) refers to stm32f4xx_usart.o(i.USART_ClearFlag) for USART_ClearFlag
    uart.o(i.UART4Init) refers to stm32f4xx_rcc.o(i.RCC_AHB1PeriphClockCmd) for RCC_AHB1PeriphClockCmd
    uart.o(i.UART4Init) refers to stm32f4xx_rcc.o(i.RCC_APB1PeriphClockCmd) for RCC_APB1PeriphClockCmd
    uart.o(i.UART4Init) refers to stm32f4xx_gpio.o(i.GPIO_PinAFConfig) for GPIO_PinAFConfig
    uart.o(i.UART4Init) refers to stm32f4xx_gpio.o(i.GPIO_Init) for GPIO_Init
    uart.o(i.UART4Init) refers to stm32f4xx_usart.o(i.USART_Init) for USART_Init
    uart.o(i.UART4Init) refers to stm32f4xx_usart.o(i.USART_DMACmd) for USART_DMACmd
    uart.o(i.UART4Init) refers to stm32f4xx_usart.o(i.USART_Cmd) for USART_Cmd
    uart.o(i.UART4Init) refers to uart.o(i.UART4_DMA_Init) for UART4_DMA_Init
    uart.o(i.UART4Init) refers to stm32f4xx_dma.o(i.DMA_GetCurrDataCounter) for DMA_GetCurrDataCounter
    uart.o(i.UART4Init) refers to uart.o(.data) for .data
    uart.o(i.UART4Poll) refers to stm32f4xx_dma.o(i.DMA_GetCurrDataCounter) for DMA_GetCurrDataCounter
    uart.o(i.UART4Poll) refers to uart.o(i.Uart4Read) for Uart4Read
    uart.o(i.UART4Poll) refers to queue.o(i.queue_in) for queue_in
    uart.o(i.UART4Poll) refers to uart.o(.data) for .data
    uart.o(i.UART4Poll) refers to timer.o(.data) for Systemtime
    uart.o(i.UART4Poll) refers to queue.o(.bss) for wifi_queue
    uart.o(i.UART4_DMA_Init) refers to stm32f4xx_rcc.o(i.RCC_AHB1PeriphClockCmd) for RCC_AHB1PeriphClockCmd
    uart.o(i.UART4_DMA_Init) refers to stm32f4xx_dma.o(i.DMA_DeInit) for DMA_DeInit
    uart.o(i.UART4_DMA_Init) refers to stm32f4xx_dma.o(i.DMA_Init) for DMA_Init
    uart.o(i.UART4_DMA_Init) refers to stm32f4xx_dma.o(i.DMA_ClearFlag) for DMA_ClearFlag
    uart.o(i.UART4_DMA_Init) refers to stm32f4xx_dma.o(i.DMA_Cmd) for DMA_Cmd
    uart.o(i.UART4_DMA_Init) refers to uart.o(.data) for .data
    uart.o(i.UART4_DMA_Init) refers to uart.o(.bss) for .bss
    uart.o(i.UART4_SentMsg) refers to uart.o(i.Sizeofmsg) for Sizeofmsg
    uart.o(i.UART4_SentMsg) refers to stm32f4xx_dma.o(i.DMA_Cmd) for DMA_Cmd
    uart.o(i.UART4_SentMsg) refers to stm32f4xx_dma.o(i.DMA_SetCurrDataCounter) for DMA_SetCurrDataCounter
    uart.o(i.UART4_SentMsg) refers to stm32f4xx_dma.o(i.DMA_GetFlagStatus) for DMA_GetFlagStatus
    uart.o(i.UART4_SentMsg) refers to stm32f4xx_usart.o(i.USART_GetFlagStatus) for USART_GetFlagStatus
    uart.o(i.UART4_SentMsg) refers to stm32f4xx_dma.o(i.DMA_ClearFlag) for DMA_ClearFlag
    uart.o(i.UART4_SentMsg) refers to stm32f4xx_usart.o(i.USART_ClearFlag) for USART_ClearFlag
    uart.o(i.UART4_SentMsgL) refers to stm32f4xx_dma.o(i.DMA_Cmd) for DMA_Cmd
    uart.o(i.UART4_SentMsgL) refers to stm32f4xx_dma.o(i.DMA_SetCurrDataCounter) for DMA_SetCurrDataCounter
    uart.o(i.UART4_SentMsgL) refers to stm32f4xx_dma.o(i.DMA_GetFlagStatus) for DMA_GetFlagStatus
    uart.o(i.UART4_SentMsgL) refers to stm32f4xx_usart.o(i.USART_GetFlagStatus) for USART_GetFlagStatus
    uart.o(i.UART4_SentMsgL) refers to stm32f4xx_dma.o(i.DMA_ClearFlag) for DMA_ClearFlag
    uart.o(i.UART4_SentMsgL) refers to stm32f4xx_usart.o(i.USART_ClearFlag) for USART_ClearFlag
    uart.o(i.Uart1Read) refers to uart.o(.data) for .data
    uart.o(i.Uart1Read) refers to uart.o(.bss) for .bss
    uart.o(i.Uart2Read) refers to uart.o(.data) for .data
    uart.o(i.Uart2Read) refers to uart.o(.bss) for .bss
    uart.o(i.Uart3Read) refers to uart.o(.data) for .data
    uart.o(i.Uart3Read) refers to uart.o(.bss) for .bss
    uart.o(i.Uart4Read) refers to uart.o(.data) for .data
    uart.o(i.Uart4Read) refers to uart.o(.bss) for .bss
    uart.o(i.rt_hw_console_output) refers to uart.o(i.UART1_SentMsgL) for UART1_SentMsgL
    uart.o(i.rt_hw_console_output2) refers to uart.o(i.UART2_SentMsg) for UART2_SentMsg
    uart.o(i.rt_hw_console_output3) refers to uart.o(i.UART3_SentMsg) for UART3_SentMsg
    uart.o(i.rt_hw_console_output4) refers to uart.o(i.UART4_SentMsg) for UART4_SentMsg
    uart.o(i.rt_kprintf) refers to vsnprintf.o(.text) for vsnprintf
    uart.o(i.rt_kprintf) refers to uart.o(i.rt_hw_console_output) for rt_hw_console_output
    uart.o(i.rt_kprintf) refers to uart.o(.bss) for .bss
    uart.o(i.rt_kprintf2) refers to vsnprintf.o(.text) for vsnprintf
    uart.o(i.rt_kprintf2) refers to uart.o(i.UART2_SentMsg) for UART2_SentMsg
    uart.o(i.rt_kprintf2) refers to uart.o(.bss) for .bss
    uart.o(i.rt_kprintf3) refers to vsnprintf.o(.text) for vsnprintf
    uart.o(i.rt_kprintf3) refers to uart.o(i.UART3_SentMsg) for UART3_SentMsg
    uart.o(i.rt_kprintf3) refers to uart.o(.bss) for .bss
    uart.o(i.rt_kprintf4) refers to vsnprintf.o(.text) for vsnprintf
    uart.o(i.rt_kprintf4) refers to uart.o(i.UART4_SentMsg) for UART4_SentMsg
    uart.o(i.rt_kprintf4) refers to uart.o(.bss) for .bss
    key.o(i.EXTI0_IRQHandler) refers to stm32f4xx_exti.o(i.EXTI_GetITStatus) for EXTI_GetITStatus
    key.o(i.EXTI0_IRQHandler) refers to stm32f4xx_exti.o(i.EXTI_ClearITPendingBit) for EXTI_ClearITPendingBit
    key.o(i.EXTI0_IRQHandler) refers to msg_deal.o(.bss) for system_var
    key.o(i.EXTI0_IRQHandler) refers to timer.o(.data) for Systemtime
    key.o(i.EXTI0_IRQHandler) refers to key.o(.data) for .data
    key.o(i.EXTI1_IRQHandler) refers to stm32f4xx_exti.o(i.EXTI_GetITStatus) for EXTI_GetITStatus
    key.o(i.EXTI1_IRQHandler) refers to stm32f4xx_exti.o(i.EXTI_ClearITPendingBit) for EXTI_ClearITPendingBit
    key.o(i.EXTI1_IRQHandler) refers to msg_deal.o(.bss) for system_var
    key.o(i.EXTI1_IRQHandler) refers to timer.o(.data) for Systemtime
    key.o(i.EXTI1_IRQHandler) refers to key.o(.data) for .data
    key.o(i.EXTI4_IRQHandler) refers to stm32f4xx_exti.o(i.EXTI_GetITStatus) for EXTI_GetITStatus
    key.o(i.EXTI4_IRQHandler) refers to stm32f4xx_exti.o(i.EXTI_ClearITPendingBit) for EXTI_ClearITPendingBit
    key.o(i.EXTI4_IRQHandler) refers to msg_deal.o(.bss) for system_var
    key.o(i.EXTI9_5_IRQHandler) refers to stm32f4xx_exti.o(i.EXTI_GetITStatus) for EXTI_GetITStatus
    key.o(i.EXTI9_5_IRQHandler) refers to stm32f4xx_exti.o(i.EXTI_ClearITPendingBit) for EXTI_ClearITPendingBit
    key.o(i.EXTI9_5_IRQHandler) refers to msg_deal.o(.bss) for system_var
    key.o(i.KEYService) refers to msg_deal.o(.bss) for system_var
    key.o(i.KEYService) refers to timer.o(.data) for Systemtime
    key.o(i.KEYService) refers to key.o(.data) for .data
    key.o(i.KEY_Init) refers to stm32f4xx_rcc.o(i.RCC_AHB1PeriphClockCmd) for RCC_AHB1PeriphClockCmd
    key.o(i.KEY_Init) refers to stm32f4xx_rcc.o(i.RCC_APB2PeriphClockCmd) for RCC_APB2PeriphClockCmd
    key.o(i.KEY_Init) refers to stm32f4xx_gpio.o(i.GPIO_Init) for GPIO_Init
    key.o(i.KEY_Init) refers to stm32f4xx_syscfg.o(i.SYSCFG_EXTILineConfig) for SYSCFG_EXTILineConfig
    key.o(i.KEY_Init) refers to stm32f4xx_exti.o(i.EXTI_Init) for EXTI_Init
    key.o(i.KEY_Init) refers to misc.o(i.NVIC_Init) for NVIC_Init
    queue.o(i.FifoBack) refers to rt_memcpy_w.o(.text) for __aeabi_memcpy4
    queue.o(i.FifoIn) refers to rt_memcpy_w.o(.text) for __aeabi_memcpy4
    queue.o(i.FifoOut) refers to rt_memcpy_w.o(.text) for __aeabi_memcpy4
    queue.o(i.queue_in) refers to rt_memcpy_v6.o(.text) for __aeabi_memcpy
    queue.o(i.queue_out) refers to rt_memcpy_v6.o(.text) for __aeabi_memcpy
    iwdg.o(i.IWDG_Feed) refers to stm32f4xx_iwdg.o(i.IWDG_ReloadCounter) for IWDG_ReloadCounter
    iwdg.o(i.IWDG_Init) refers to stm32f4xx_iwdg.o(i.IWDG_WriteAccessCmd) for IWDG_WriteAccessCmd
    iwdg.o(i.IWDG_Init) refers to stm32f4xx_iwdg.o(i.IWDG_SetPrescaler) for IWDG_SetPrescaler
    iwdg.o(i.IWDG_Init) refers to stm32f4xx_iwdg.o(i.IWDG_SetReload) for IWDG_SetReload
    iwdg.o(i.IWDG_Init) refers to stm32f4xx_iwdg.o(i.IWDG_ReloadCounter) for IWDG_ReloadCounter
    iwdg.o(i.IWDG_Init) refers to stm32f4xx_iwdg.o(i.IWDG_Enable) for IWDG_Enable
    rtc.o(i.My_RTC_Init) refers to stm32f4xx_pwr.o(i.PWR_DeInit) for PWR_DeInit
    rtc.o(i.My_RTC_Init) refers to stm32f4xx_rtc.o(i.RTC_DeInit) for RTC_DeInit
    rtc.o(i.My_RTC_Init) refers to stm32f4xx_rcc.o(i.RCC_APB1PeriphClockCmd) for RCC_APB1PeriphClockCmd
    rtc.o(i.My_RTC_Init) refers to stm32f4xx_pwr.o(i.PWR_BackupAccessCmd) for PWR_BackupAccessCmd
    rtc.o(i.My_RTC_Init) refers to stm32f4xx_rtc.o(i.RTC_WriteBackupRegister) for RTC_WriteBackupRegister
    rtc.o(i.My_RTC_Init) refers to stm32f4xx_rtc.o(i.RTC_ReadBackupRegister) for RTC_ReadBackupRegister
    rtc.o(i.My_RTC_Init) refers to uart.o(i.rt_kprintf) for rt_kprintf
    rtc.o(i.My_RTC_Init) refers to stm32f4xx_rcc.o(i.RCC_LSICmd) for RCC_LSICmd
    rtc.o(i.My_RTC_Init) refers to stm32f4xx_it.o(i.delay_ms) for delay_ms
    rtc.o(i.My_RTC_Init) refers to stm32f4xx_rcc.o(i.RCC_GetFlagStatus) for RCC_GetFlagStatus
    rtc.o(i.My_RTC_Init) refers to stm32f4xx_rcc.o(i.RCC_RTCCLKConfig) for RCC_RTCCLKConfig
    rtc.o(i.My_RTC_Init) refers to stm32f4xx_rcc.o(i.RCC_RTCCLKCmd) for RCC_RTCCLKCmd
    rtc.o(i.My_RTC_Init) refers to stm32f4xx_rtc.o(i.RTC_Init) for RTC_Init
    rtc.o(i.My_RTC_Init) refers to rtc.o(i.RTC_Set_Time) for RTC_Set_Time
    rtc.o(i.My_RTC_Init) refers to rtc.o(i.RTC_Set_Date) for RTC_Set_Date
    rtc.o(i.RTC_Set_Date) refers to stm32f4xx_rtc.o(i.RTC_SetDate) for RTC_SetDate
    rtc.o(i.RTC_Set_Time) refers to stm32f4xx_rtc.o(i.RTC_SetTime) for RTC_SetTime
    common.o(i.GetCesqValue) refers to strstr.o(.text) for strstr
    common.o(i.GetCesqValue) refers to dflt_clz.o(x$fpl$dflt) for __aeabi_i2d
    common.o(i.GetCesqValue) refers to dflt_clz.o(x$fpl$dfltu) for __aeabi_ui2d
    common.o(i.GetCesqValue) refers to pow.o(i.__hardfp_pow) for __hardfp_pow
    common.o(i.GetCesqValue) refers to dmul.o(x$fpl$dmul) for __aeabi_dmul
    common.o(i.GetCesqValue) refers to daddsub_clz.o(x$fpl$dadd) for __aeabi_dadd
    common.o(i.GetCesqValue) refers to dfixu.o(x$fpl$dfixu) for __aeabi_d2uiz
    common.o(i.GetCesqValue) refers to uart.o(i.rt_kprintf) for rt_kprintf
    common.o(i.GetOutputData) refers to _printf_percent.o(.ARM.Collect$$_printf_percent$$00000000) for _printf_percent
    common.o(i.GetOutputData) refers to _printf_d.o(.ARM.Collect$$_printf_percent$$00000009) for _printf_d
    common.o(i.GetOutputData) refers to _printf_dec.o(.text) for _printf_int_dec
    common.o(i.GetOutputData) refers to rt_memcpy_v6.o(.text) for __aeabi_memcpy
    common.o(i.GetOutputData) refers to __2sprintf.o(.text) for __2sprintf
    common.o(i.GetOutputData) refers to common.o(i.TransferDataToString) for TransferDataToString
    common.o(i.GetRecvIOTMsg) refers to strstr.o(.text) for strstr
    common.o(i.GetRecvIOTMsg) refers to uart.o(i.rt_kprintf) for rt_kprintf
    common.o(i.GetRecvIOTMsg) refers to rt_memcpy_v6.o(.text) for __aeabi_memcpy
    common.o(i.GetRecvIOTMsg) refers to pow.o(i.__hardfp_pow) for __hardfp_pow
    common.o(i.GetRecvIOTMsg) refers to dfixu.o(x$fpl$dfixu) for __aeabi_d2uiz
    common.o(i.TransferDataToString) refers to _printf_pad.o(.text) for _printf_pre_padding
    common.o(i.TransferDataToString) refers to _printf_percent.o(.ARM.Collect$$_printf_percent$$00000000) for _printf_percent
    common.o(i.TransferDataToString) refers to _printf_x.o(.ARM.Collect$$_printf_percent$$0000000C) for _printf_x
    common.o(i.TransferDataToString) refers to _printf_hex_int_ll_ptr.o(.text) for _printf_longlong_hex
    common.o(i.TransferDataToString) refers to __2sprintf.o(.text) for __2sprintf
    nrf24l01.o(i.NRF24L01StateCheck) refers to strstr.o(.text) for strstr
    nrf24l01.o(i.NRF24L01_Check) refers to nrf24l01.o(i.SPI1_SetSpeed) for SPI1_SetSpeed
    nrf24l01.o(i.NRF24L01_Check) refers to nrf24l01.o(i.NRF24L01_Write_Buf) for NRF24L01_Write_Buf
    nrf24l01.o(i.NRF24L01_Check) refers to nrf24l01.o(i.NRF24L01_Read_Buf) for NRF24L01_Read_Buf
    nrf24l01.o(i.NRF24L01_Init) refers to stm32f4xx_rcc.o(i.RCC_AHB1PeriphClockCmd) for RCC_AHB1PeriphClockCmd
    nrf24l01.o(i.NRF24L01_Init) refers to stm32f4xx_gpio.o(i.GPIO_Init) for GPIO_Init
    nrf24l01.o(i.NRF24L01_Init) refers to stm32f4xx_gpio.o(i.GPIO_SetBits) for GPIO_SetBits
    nrf24l01.o(i.NRF24L01_Init) refers to nrf24l01.o(i.SPI1_Init) for SPI1_Init
    nrf24l01.o(i.NRF24L01_Init) refers to nrf24l01.o(i.NRF24L01_SPI_Init) for NRF24L01_SPI_Init
    nrf24l01.o(i.NRF24L01_Init) refers to stm32f4xx_it.o(i.delay_ms) for delay_ms
    nrf24l01.o(i.NRF24L01_Init) refers to stm32f4xx_gpio.o(i.GPIO_ResetBits) for GPIO_ResetBits
    nrf24l01.o(i.NRF24L01_Init) refers to nrf24l01.o(i.NRF24L01_Check) for NRF24L01_Check
    nrf24l01.o(i.NRF24L01_Init) refers to queue.o(i.queue_init) for queue_init
    nrf24l01.o(i.NRF24L01_Init) refers to msg_deal.o(.bss) for system_var
    nrf24l01.o(i.NRF24L01_Init) refers to queue.o(.bss) for nrf24l01_queue
    nrf24l01.o(i.NRF24L01_RX_Mode) refers to nrf24l01.o(i.NRF24L01_Write_Buf) for NRF24L01_Write_Buf
    nrf24l01.o(i.NRF24L01_RX_Mode) refers to nrf24l01.o(i.NRF24L01_Write_Reg) for NRF24L01_Write_Reg
    nrf24l01.o(i.NRF24L01_RX_Mode) refers to nrf24l01.o(.constdata) for .constdata
    nrf24l01.o(i.NRF24L01_Read_Buf) refers to nrf24l01.o(i.SPI1_ReadWriteByte) for SPI1_ReadWriteByte
    nrf24l01.o(i.NRF24L01_Read_Reg) refers to nrf24l01.o(i.SPI1_ReadWriteByte) for SPI1_ReadWriteByte
    nrf24l01.o(i.NRF24L01_RxPacket) refers to nrf24l01.o(i.SPI1_SetSpeed) for SPI1_SetSpeed
    nrf24l01.o(i.NRF24L01_RxPacket) refers to nrf24l01.o(i.NRF24L01_Read_Reg) for NRF24L01_Read_Reg
    nrf24l01.o(i.NRF24L01_RxPacket) refers to nrf24l01.o(i.NRF24L01_Write_Reg) for NRF24L01_Write_Reg
    nrf24l01.o(i.NRF24L01_RxPacket) refers to nrf24l01.o(i.NRF24L01_Read_Buf) for NRF24L01_Read_Buf
    nrf24l01.o(i.NRF24L01_SPI_Init) refers to stm32f4xx_spi.o(i.SPI_Cmd) for SPI_Cmd
    nrf24l01.o(i.NRF24L01_SPI_Init) refers to stm32f4xx_spi.o(i.SPI_Init) for SPI_Init
    nrf24l01.o(i.NRF24L01_TX_Mode) refers to nrf24l01.o(i.NRF24L01_Write_Buf) for NRF24L01_Write_Buf
    nrf24l01.o(i.NRF24L01_TX_Mode) refers to nrf24l01.o(i.NRF24L01_Write_Reg) for NRF24L01_Write_Reg
    nrf24l01.o(i.NRF24L01_TX_Mode) refers to nrf24l01.o(.constdata) for .constdata
    nrf24l01.o(i.NRF24L01_TxPacket) refers to nrf24l01.o(i.SPI1_SetSpeed) for SPI1_SetSpeed
    nrf24l01.o(i.NRF24L01_TxPacket) refers to nrf24l01.o(i.NRF24L01_Write_Buf) for NRF24L01_Write_Buf
    nrf24l01.o(i.NRF24L01_TxPacket) refers to nrf24l01.o(i.NRF24L01_Read_Reg) for NRF24L01_Read_Reg
    nrf24l01.o(i.NRF24L01_TxPacket) refers to nrf24l01.o(i.NRF24L01_Write_Reg) for NRF24L01_Write_Reg
    nrf24l01.o(i.NRF24L01_Write_Buf) refers to nrf24l01.o(i.SPI1_ReadWriteByte) for SPI1_ReadWriteByte
    nrf24l01.o(i.NRF24L01_Write_Reg) refers to nrf24l01.o(i.SPI1_ReadWriteByte) for SPI1_ReadWriteByte
    nrf24l01.o(i.SPI1_Init) refers to stm32f4xx_rcc.o(i.RCC_AHB1PeriphClockCmd) for RCC_AHB1PeriphClockCmd
    nrf24l01.o(i.SPI1_Init) refers to stm32f4xx_rcc.o(i.RCC_APB2PeriphClockCmd) for RCC_APB2PeriphClockCmd
    nrf24l01.o(i.SPI1_Init) refers to stm32f4xx_gpio.o(i.GPIO_Init) for GPIO_Init
    nrf24l01.o(i.SPI1_Init) refers to stm32f4xx_gpio.o(i.GPIO_PinAFConfig) for GPIO_PinAFConfig
    nrf24l01.o(i.SPI1_Init) refers to stm32f4xx_rcc.o(i.RCC_APB2PeriphResetCmd) for RCC_APB2PeriphResetCmd
    nrf24l01.o(i.SPI1_Init) refers to stm32f4xx_spi.o(i.SPI_Init) for SPI_Init
    nrf24l01.o(i.SPI1_Init) refers to stm32f4xx_spi.o(i.SPI_Cmd) for SPI_Cmd
    nrf24l01.o(i.SPI1_Init) refers to nrf24l01.o(i.SPI1_ReadWriteByte) for SPI1_ReadWriteByte
    nrf24l01.o(i.SPI1_ReadWriteByte) refers to stm32f4xx_spi.o(i.SPI_I2S_GetFlagStatus) for SPI_I2S_GetFlagStatus
    nrf24l01.o(i.SPI1_ReadWriteByte) refers to stm32f4xx_spi.o(i.SPI_I2S_SendData) for SPI_I2S_SendData
    nrf24l01.o(i.SPI1_ReadWriteByte) refers to stm32f4xx_spi.o(i.SPI_I2S_ReceiveData) for SPI_I2S_ReceiveData
    nrf24l01.o(i.SPI1_SetSpeed) refers to stm32f4xx_spi.o(i.SPI_Cmd) for SPI_Cmd
    nrf24l01.o(i.nrf_communication_service_msg_process) refers to nrf24l01.o(i.NRF24L01_RX_Mode) for NRF24L01_RX_Mode
    nrf24l01.o(i.nrf_communication_service_msg_process) refers to uart.o(i.rt_kprintf) for rt_kprintf
    nrf24l01.o(i.nrf_communication_service_msg_process) refers to nrf24l01.o(i.NRF24L01_TX_Mode) for NRF24L01_TX_Mode
    nrf24l01.o(i.nrf_communication_service_msg_process) refers to queue.o(i.queue_out) for queue_out
    nrf24l01.o(i.nrf_communication_service_msg_process) refers to nrf24l01.o(i.NRF24L01_TxPacket) for NRF24L01_TxPacket
    nrf24l01.o(i.nrf_communication_service_msg_process) refers to nrf24l01.o(i.NRF24L01_RxPacket) for NRF24L01_RxPacket
    nrf24l01.o(i.nrf_communication_service_msg_process) refers to nrf24l01.o(i.NRF24L01StateCheck) for NRF24L01StateCheck
    nrf24l01.o(i.nrf_communication_service_msg_process) refers to rt_memclr.o(.text) for __aeabi_memclr
    nrf24l01.o(i.nrf_communication_service_msg_process) refers to msg_deal.o(.bss) for system_var
    nrf24l01.o(i.nrf_communication_service_msg_process) refers to nrf24l01.o(.bss) for .bss
    nrf24l01.o(i.nrf_communication_service_msg_process) refers to queue.o(.bss) for nrf24l01_queue
    cjson.o(i.cJSON_AddItemReferenceToArray) refers to cjson.o(i.create_reference) for create_reference
    cjson.o(i.cJSON_AddItemReferenceToArray) refers to cjson.o(i.cJSON_AddItemToArray) for cJSON_AddItemToArray
    cjson.o(i.cJSON_AddItemReferenceToObject) refers to cjson.o(i.create_reference) for create_reference
    cjson.o(i.cJSON_AddItemReferenceToObject) refers to cjson.o(i.cJSON_AddItemToObject) for cJSON_AddItemToObject
    cjson.o(i.cJSON_AddItemToObject) refers to cjson.o(i.cJSON_strdup) for cJSON_strdup
    cjson.o(i.cJSON_AddItemToObject) refers to cjson.o(i.cJSON_AddItemToArray) for cJSON_AddItemToArray
    cjson.o(i.cJSON_AddItemToObject) refers to cjson.o(.data) for .data
    cjson.o(i.cJSON_AddItemToObjectCS) refers to cjson.o(i.cJSON_AddItemToArray) for cJSON_AddItemToArray
    cjson.o(i.cJSON_AddItemToObjectCS) refers to cjson.o(.data) for .data
    cjson.o(i.cJSON_CreateArray) refers to cjson.o(i.cJSON_New_Item) for cJSON_New_Item
    cjson.o(i.cJSON_CreateBool) refers to cjson.o(i.cJSON_New_Item) for cJSON_New_Item
    cjson.o(i.cJSON_CreateDoubleArray) refers to cjson.o(i.cJSON_CreateArray) for cJSON_CreateArray
    cjson.o(i.cJSON_CreateDoubleArray) refers to cjson.o(i.cJSON_CreateNumber) for cJSON_CreateNumber
    cjson.o(i.cJSON_CreateFalse) refers to cjson.o(i.cJSON_New_Item) for cJSON_New_Item
    cjson.o(i.cJSON_CreateFloatArray) refers to cjson.o(i.cJSON_CreateArray) for cJSON_CreateArray
    cjson.o(i.cJSON_CreateFloatArray) refers to f2d.o(x$fpl$f2d) for __aeabi_f2d
    cjson.o(i.cJSON_CreateFloatArray) refers to cjson.o(i.cJSON_CreateNumber) for cJSON_CreateNumber
    cjson.o(i.cJSON_CreateIntArray) refers to cjson.o(i.cJSON_CreateArray) for cJSON_CreateArray
    cjson.o(i.cJSON_CreateIntArray) refers to dflt_clz.o(x$fpl$dflt) for __aeabi_i2d
    cjson.o(i.cJSON_CreateIntArray) refers to cjson.o(i.cJSON_CreateNumber) for cJSON_CreateNumber
    cjson.o(i.cJSON_CreateNull) refers to cjson.o(i.cJSON_New_Item) for cJSON_New_Item
    cjson.o(i.cJSON_CreateNumber) refers to cjson.o(i.cJSON_New_Item) for cJSON_New_Item
    cjson.o(i.cJSON_CreateNumber) refers to dfix.o(x$fpl$dfix) for __aeabi_d2iz
    cjson.o(i.cJSON_CreateObject) refers to cjson.o(i.cJSON_New_Item) for cJSON_New_Item
    cjson.o(i.cJSON_CreateString) refers to cjson.o(i.cJSON_New_Item) for cJSON_New_Item
    cjson.o(i.cJSON_CreateString) refers to cjson.o(i.cJSON_strdup) for cJSON_strdup
    cjson.o(i.cJSON_CreateStringArray) refers to cjson.o(i.cJSON_CreateArray) for cJSON_CreateArray
    cjson.o(i.cJSON_CreateStringArray) refers to cjson.o(i.cJSON_CreateString) for cJSON_CreateString
    cjson.o(i.cJSON_CreateTrue) refers to cjson.o(i.cJSON_New_Item) for cJSON_New_Item
    cjson.o(i.cJSON_Delete) refers to cjson.o(.data) for .data
    cjson.o(i.cJSON_DeleteItemFromArray) refers to cjson.o(i.cJSON_DetachItemFromArray) for cJSON_DetachItemFromArray
    cjson.o(i.cJSON_DeleteItemFromArray) refers to cjson.o(i.cJSON_Delete) for cJSON_Delete
    cjson.o(i.cJSON_DeleteItemFromObject) refers to cjson.o(i.cJSON_DetachItemFromObject) for cJSON_DetachItemFromObject
    cjson.o(i.cJSON_DeleteItemFromObject) refers to cjson.o(i.cJSON_Delete) for cJSON_Delete
    cjson.o(i.cJSON_DetachItemFromObject) refers to cjson.o(i.cJSON_strcasecmp) for cJSON_strcasecmp
    cjson.o(i.cJSON_DetachItemFromObject) refers to cjson.o(i.cJSON_DetachItemFromArray) for cJSON_DetachItemFromArray
    cjson.o(i.cJSON_Duplicate) refers to cjson.o(i.cJSON_New_Item) for cJSON_New_Item
    cjson.o(i.cJSON_Duplicate) refers to cjson.o(i.cJSON_strdup) for cJSON_strdup
    cjson.o(i.cJSON_Duplicate) refers to cjson.o(i.cJSON_Delete) for cJSON_Delete
    cjson.o(i.cJSON_GetErrorPtr) refers to cjson.o(.data) for .data
    cjson.o(i.cJSON_GetObjectItem) refers to cjson.o(i.cJSON_strcasecmp) for cJSON_strcasecmp
    cjson.o(i.cJSON_InitHooks) refers to cjson.o(.data) for .data
    cjson.o(i.cJSON_InitHooks) refers to h1_alloc.o(.text) for malloc
    cjson.o(i.cJSON_InitHooks) refers to h1_free.o(.text) for free
    cjson.o(i.cJSON_InsertItemInArray) refers to cjson.o(i.cJSON_AddItemToArray) for cJSON_AddItemToArray
    cjson.o(i.cJSON_New_Item) refers to rt_memclr_w.o(.text) for __aeabi_memclr4
    cjson.o(i.cJSON_New_Item) refers to cjson.o(.data) for .data
    cjson.o(i.cJSON_Parse) refers to cjson.o(i.cJSON_ParseWithOpts) for cJSON_ParseWithOpts
    cjson.o(i.cJSON_ParseWithOpts) refers to cjson.o(i.cJSON_New_Item) for cJSON_New_Item
    cjson.o(i.cJSON_ParseWithOpts) refers to cjson.o(i.skip) for skip
    cjson.o(i.cJSON_ParseWithOpts) refers to cjson.o(i.parse_value) for parse_value
    cjson.o(i.cJSON_ParseWithOpts) refers to cjson.o(i.cJSON_Delete) for cJSON_Delete
    cjson.o(i.cJSON_ParseWithOpts) refers to cjson.o(.data) for .data
    cjson.o(i.cJSON_Print) refers to cjson.o(i.print_value) for print_value
    cjson.o(i.cJSON_PrintBuffered) refers to cjson.o(i.print_value) for print_value
    cjson.o(i.cJSON_PrintBuffered) refers to cjson.o(.data) for .data
    cjson.o(i.cJSON_PrintUnformatted) refers to cjson.o(i.print_value) for print_value
    cjson.o(i.cJSON_ReplaceItemInArray) refers to cjson.o(i.cJSON_Delete) for cJSON_Delete
    cjson.o(i.cJSON_ReplaceItemInObject) refers to cjson.o(i.cJSON_strcasecmp) for cJSON_strcasecmp
    cjson.o(i.cJSON_ReplaceItemInObject) refers to cjson.o(i.cJSON_strdup) for cJSON_strdup
    cjson.o(i.cJSON_ReplaceItemInObject) refers to cjson.o(i.cJSON_ReplaceItemInArray) for cJSON_ReplaceItemInArray
    cjson.o(i.cJSON_strcasecmp) refers to tolower.o(.text) for tolower
    cjson.o(i.cJSON_strdup) refers to strlen.o(.text) for strlen
    cjson.o(i.cJSON_strdup) refers to rt_memcpy_v6.o(.text) for __aeabi_memcpy
    cjson.o(i.cJSON_strdup) refers to cjson.o(.data) for .data
    cjson.o(i.create_reference) refers to cjson.o(i.cJSON_New_Item) for cJSON_New_Item
    cjson.o(i.create_reference) refers to rt_memcpy_w.o(.text) for __aeabi_memcpy4
    cjson.o(i.ensure) refers to rt_memcpy_v6.o(.text) for __aeabi_memcpy
    cjson.o(i.ensure) refers to cjson.o(.data) for .data
    cjson.o(i.parse_array) refers to cjson.o(i.skip) for skip
    cjson.o(i.parse_array) refers to cjson.o(i.cJSON_New_Item) for cJSON_New_Item
    cjson.o(i.parse_array) refers to cjson.o(i.parse_value) for parse_value
    cjson.o(i.parse_array) refers to cjson.o(.data) for .data
    cjson.o(i.parse_number) refers to dflt_clz.o(x$fpl$dflt) for __aeabi_i2d
    cjson.o(i.parse_number) refers to dmul.o(x$fpl$dmul) for __aeabi_dmul
    cjson.o(i.parse_number) refers to daddsub_clz.o(x$fpl$dadd) for __aeabi_dadd
    cjson.o(i.parse_number) refers to daddsub_clz.o(x$fpl$dsub) for __aeabi_dsub
    cjson.o(i.parse_number) refers to pow.o(i.__hardfp_pow) for __hardfp_pow
    cjson.o(i.parse_number) refers to dfix.o(x$fpl$dfix) for __aeabi_d2iz
    cjson.o(i.parse_object) refers to cjson.o(i.skip) for skip
    cjson.o(i.parse_object) refers to cjson.o(i.cJSON_New_Item) for cJSON_New_Item
    cjson.o(i.parse_object) refers to cjson.o(i.parse_string) for parse_string
    cjson.o(i.parse_object) refers to cjson.o(i.parse_value) for parse_value
    cjson.o(i.parse_object) refers to cjson.o(.data) for .data
    cjson.o(i.parse_string) refers to cjson.o(i.parse_hex4) for parse_hex4
    cjson.o(i.parse_string) refers to cjson.o(.data) for .data
    cjson.o(i.parse_string) refers to cjson.o(.constdata) for .constdata
    cjson.o(i.parse_value) refers to strncmp.o(.text) for strncmp
    cjson.o(i.parse_value) refers to cjson.o(i.parse_number) for parse_number
    cjson.o(i.parse_value) refers to cjson.o(i.parse_string) for parse_string
    cjson.o(i.parse_value) refers to cjson.o(i.parse_array) for parse_array
    cjson.o(i.parse_value) refers to cjson.o(i.parse_object) for parse_object
    cjson.o(i.parse_value) refers to cjson.o(.data) for .data
    cjson.o(i.print_array) refers to cjson.o(i.ensure) for ensure
    cjson.o(i.print_array) refers to strcpy.o(.text) for strcpy
    cjson.o(i.print_array) refers to cjson.o(i.print_value) for print_value
    cjson.o(i.print_array) refers to cjson.o(i.update) for update
    cjson.o(i.print_array) refers to rt_memclr_w.o(.text) for __aeabi_memclr4
    cjson.o(i.print_array) refers to strlen.o(.text) for strlen
    cjson.o(i.print_array) refers to rt_memcpy_v6.o(.text) for __aeabi_memcpy
    cjson.o(i.print_array) refers to cjson.o(.data) for .data
    cjson.o(i.print_number) refers to _printf_percent.o(.ARM.Collect$$_printf_percent$$00000000) for _printf_percent
    cjson.o(i.print_number) refers to _printf_d.o(.ARM.Collect$$_printf_percent$$00000009) for _printf_d
    cjson.o(i.print_number) refers to _printf_dec.o(.text) for _printf_int_dec
    cjson.o(i.print_number) refers to _printf_f.o(.ARM.Collect$$_printf_percent$$00000003) for _printf_f
    cjson.o(i.print_number) refers to printf1.o(x$fpl$printf1) for _printf_fp_dec
    cjson.o(i.print_number) refers to _printf_e.o(.ARM.Collect$$_printf_percent$$00000004) for _printf_e
    cjson.o(i.print_number) refers to deqf.o(x$fpl$deqf) for __aeabi_cdcmpeq
    cjson.o(i.print_number) refers to cjson.o(i.ensure) for ensure
    cjson.o(i.print_number) refers to dflt_clz.o(x$fpl$dflt) for __aeabi_i2d
    cjson.o(i.print_number) refers to daddsub_clz.o(x$fpl$dsub) for __aeabi_dsub
    cjson.o(i.print_number) refers to fabs.o(i.__hardfp_fabs) for __hardfp_fabs
    cjson.o(i.print_number) refers to dleqf.o(x$fpl$dleqf) for __aeabi_cdcmple
    cjson.o(i.print_number) refers to drleqf.o(x$fpl$drleqf) for __aeabi_cdrcmple
    cjson.o(i.print_number) refers to __2sprintf.o(.text) for __2sprintf
    cjson.o(i.print_number) refers to floor.o(i.__hardfp_floor) for __hardfp_floor
    cjson.o(i.print_number) refers to cjson.o(.data) for .data
    cjson.o(i.print_object) refers to cjson.o(i.ensure) for ensure
    cjson.o(i.print_object) refers to cjson.o(i.print_string_ptr) for print_string_ptr
    cjson.o(i.print_object) refers to cjson.o(i.update) for update
    cjson.o(i.print_object) refers to cjson.o(i.print_value) for print_value
    cjson.o(i.print_object) refers to rt_memclr_w.o(.text) for __aeabi_memclr4
    cjson.o(i.print_object) refers to strlen.o(.text) for strlen
    cjson.o(i.print_object) refers to rt_memcpy_v6.o(.text) for __aeabi_memcpy
    cjson.o(i.print_object) refers to strcpy.o(.text) for strcpy
    cjson.o(i.print_object) refers to cjson.o(.data) for .data
    cjson.o(i.print_string) refers to cjson.o(i.print_string_ptr) for print_string_ptr
    cjson.o(i.print_string_ptr) refers to _printf_pad.o(.text) for _printf_pre_padding
    cjson.o(i.print_string_ptr) refers to _printf_percent.o(.ARM.Collect$$_printf_percent$$00000000) for _printf_percent
    cjson.o(i.print_string_ptr) refers to _printf_x.o(.ARM.Collect$$_printf_percent$$0000000C) for _printf_x
    cjson.o(i.print_string_ptr) refers to _printf_hex_int_ll_ptr.o(.text) for _printf_longlong_hex
    cjson.o(i.print_string_ptr) refers to cjson.o(i.ensure) for ensure
    cjson.o(i.print_string_ptr) refers to strcpy.o(.text) for strcpy
    cjson.o(i.print_string_ptr) refers to strchr.o(.text) for strchr
    cjson.o(i.print_string_ptr) refers to __2sprintf.o(.text) for __2sprintf
    cjson.o(i.print_string_ptr) refers to cjson.o(.data) for .data
    cjson.o(i.print_value) refers to cjson.o(i.ensure) for ensure
    cjson.o(i.print_value) refers to strcpy.o(.text) for strcpy
    cjson.o(i.print_value) refers to cjson.o(i.print_array) for print_array
    cjson.o(i.print_value) refers to cjson.o(i.print_object) for print_object
    cjson.o(i.print_value) refers to cjson.o(i.cJSON_strdup) for cJSON_strdup
    cjson.o(i.print_value) refers to cjson.o(i.print_number) for print_number
    cjson.o(i.print_value) refers to cjson.o(i.print_string) for print_string
    cjson.o(i.update) refers to strlen.o(.text) for strlen
    cjson.o(.data) refers to h1_alloc.o(.text) for malloc
    cjson.o(.data) refers to h1_free.o(.text) for free
    bluetooth.o(i.BleStateCheck) refers to strstr.o(.text) for strstr
    bluetooth.o(i.ble_init) refers to queue.o(i.queue_init) for queue_init
    bluetooth.o(i.ble_init) refers to queue.o(i.FifoInit) for FifoInit
    bluetooth.o(i.ble_init) refers to uart.o(i.UART2Init) for UART2Init
    bluetooth.o(i.ble_init) refers to strlen.o(.text) for strlen
    bluetooth.o(i.ble_init) refers to rt_memcpy_v6.o(.text) for __aeabi_memcpy
    bluetooth.o(i.ble_init) refers to queue.o(i.FifoIn) for FifoIn
    bluetooth.o(i.ble_init) refers to queue.o(.bss) for ble_queue
    bluetooth.o(i.ble_init) refers to queue.o(.bss) for sOperCmdUnionFifo_ble
    bluetooth.o(i.ble_init) refers to queue.o(.bss) for sOperCmdBuff_ble
    bluetooth.o(i.ble_init) refers to queue.o(.bss) for sOperCmdUnion_ble
    bluetooth.o(i.ble_init) refers to bluetooth.o(.data) for .data
    bluetooth.o(i.bluetooth_msg_porcess) refers to timer.o(i.GetSystemTime) for GetSystemTime
    bluetooth.o(i.bluetooth_msg_porcess) refers to uart.o(i.rt_kprintf) for rt_kprintf
    bluetooth.o(i.bluetooth_msg_porcess) refers to uart.o(i.PrintfIOTPort2) for PrintfIOTPort2
    bluetooth.o(i.bluetooth_msg_porcess) refers to queue.o(i.FifoOut) for FifoOut
    bluetooth.o(i.bluetooth_msg_porcess) refers to queue.o(i.queue_out) for queue_out
    bluetooth.o(i.bluetooth_msg_porcess) refers to rt_memclr.o(.text) for __aeabi_memclr
    bluetooth.o(i.bluetooth_msg_porcess) refers to uart.o(i.UART2_SentMsgL) for UART2_SentMsgL
    bluetooth.o(i.bluetooth_msg_porcess) refers to uart.o(i.rt_kprintf2) for rt_kprintf2
    bluetooth.o(i.bluetooth_msg_porcess) refers to uart.o(i.UART1_SentMsgL) for UART1_SentMsgL
    bluetooth.o(i.bluetooth_msg_porcess) refers to bluetooth.o(i.BleStateCheck) for BleStateCheck
    bluetooth.o(i.bluetooth_msg_porcess) refers to wifi.o(i.print_wifi_weather_time_info) for print_wifi_weather_time_info
    bluetooth.o(i.bluetooth_msg_porcess) refers to queue.o(i.queue_in) for queue_in
    bluetooth.o(i.bluetooth_msg_porcess) refers to queue.o(.bss) for sOperCmdBuff_ble
    bluetooth.o(i.bluetooth_msg_porcess) refers to queue.o(.bss) for sOperCmdUnionFifo_ble
    bluetooth.o(i.bluetooth_msg_porcess) refers to uart.o(.data) for FrameInlen
    bluetooth.o(i.bluetooth_msg_porcess) refers to uart.o(.bss) for FrameInBuff
    bluetooth.o(i.bluetooth_msg_porcess) refers to queue.o(.bss) for ble_queue
    bluetooth.o(i.bluetooth_msg_porcess) refers to msg_deal.o(.bss) for system_var
    bluetooth.o(i.bluetooth_msg_porcess) refers to queue.o(.bss) for nrf24l01_queue
    wifi.o(i.WifiStateCheck) refers to strstr.o(.text) for strstr
    wifi.o(i.connect_server) refers to rt_memcpy_v6.o(.text) for __aeabi_memcpy
    wifi.o(i.connect_server) refers to queue.o(i.FifoIn) for FifoIn
    wifi.o(i.connect_server) refers to queue.o(.bss) for sOperCmdUnion_wifi
    wifi.o(i.connect_server) refers to wifi.o(.data) for .data
    wifi.o(i.connect_server) refers to queue.o(.bss) for sOperCmdUnionFifo_wifi
    wifi.o(i.connect_wifi_network) refers to rt_memcpy_v6.o(.text) for __aeabi_memcpy
    wifi.o(i.connect_wifi_network) refers to queue.o(i.FifoIn) for FifoIn
    wifi.o(i.connect_wifi_network) refers to queue.o(.bss) for sOperCmdUnion_wifi
    wifi.o(i.connect_wifi_network) refers to wifi.o(.data) for .data
    wifi.o(i.connect_wifi_network) refers to queue.o(.bss) for sOperCmdUnionFifo_wifi
    wifi.o(i.entry_send_state) refers to rt_memcpy_v6.o(.text) for __aeabi_memcpy
    wifi.o(i.entry_send_state) refers to queue.o(i.FifoIn) for FifoIn
    wifi.o(i.entry_send_state) refers to queue.o(.bss) for sOperCmdUnion_wifi
    wifi.o(i.entry_send_state) refers to wifi.o(.data) for .data
    wifi.o(i.entry_send_state) refers to queue.o(.bss) for sOperCmdUnionFifo_wifi
    wifi.o(i.get_network_time_cmds) refers to wifi.o(i.connect_server) for connect_server
    wifi.o(i.get_network_time_cmds) refers to wifi.o(i.set_send_mode) for set_send_mode
    wifi.o(i.get_network_time_cmds) refers to wifi.o(i.entry_send_state) for entry_send_state
    wifi.o(i.get_network_time_cmds) refers to wifi.o(i.send_data) for send_data
    wifi.o(i.get_network_time_cmds) refers to wifi.o(i.send_weather_data) for send_weather_data
    wifi.o(i.get_network_time_cmds) refers to wifi.o(i.quit_send_data_mode_cmd) for quit_send_data_mode_cmd
    wifi.o(i.get_network_time_cmds) refers to wifi.o(i.quit_network_connect_cmd) for quit_network_connect_cmd
    wifi.o(i.get_network_time_cmds) refers to wifi.o(.data) for .data
    wifi.o(i.get_wifi_info_data) refers to strstr.o(.text) for strstr
    wifi.o(i.get_wifi_info_data) refers to wifi.o(i.get_data_str_index) for get_data_str_index
    wifi.o(i.get_wifi_info_data) refers to rt_memcpy_v6.o(.text) for __aeabi_memcpy
    wifi.o(i.get_wifi_info_data) refers to uart.o(i.rt_kprintf) for rt_kprintf
    wifi.o(i.init_wifi_network) refers to queue.o(i.queue_init) for queue_init
    wifi.o(i.init_wifi_network) refers to queue.o(i.FifoInit) for FifoInit
    wifi.o(i.init_wifi_network) refers to uart.o(i.UART4Init) for UART4Init
    wifi.o(i.init_wifi_network) refers to rt_memcpy_v6.o(.text) for __aeabi_memcpy
    wifi.o(i.init_wifi_network) refers to queue.o(i.FifoIn) for FifoIn
    wifi.o(i.init_wifi_network) refers to wifi.o(i.quiry_wifi) for quiry_wifi
    wifi.o(i.init_wifi_network) refers to wifi.o(i.connect_wifi_network) for connect_wifi_network
    wifi.o(i.init_wifi_network) refers to wifi.o(i.get_network_time_cmds) for get_network_time_cmds
    wifi.o(i.init_wifi_network) refers to queue.o(.bss) for wifi_queue
    wifi.o(i.init_wifi_network) refers to queue.o(.bss) for sOperCmdUnionFifo_wifi
    wifi.o(i.init_wifi_network) refers to queue.o(.bss) for sOperCmdBuff
    wifi.o(i.init_wifi_network) refers to queue.o(.bss) for sOperCmdUnion_wifi
    wifi.o(i.init_wifi_network) refers to wifi.o(.data) for .data
    wifi.o(i.paraing_time_string) refers to rtc.o(i.RTC_Set_Date) for RTC_Set_Date
    wifi.o(i.paraing_time_string) refers to rtc.o(i.RTC_Set_Time) for RTC_Set_Time
    wifi.o(i.paraing_time_string) refers to wifi.o(.bss) for .bss
    wifi.o(i.parsing_time_json_info) refers to cjson.o(i.cJSON_Parse) for cJSON_Parse
    wifi.o(i.parsing_time_json_info) refers to cjson.o(i.cJSON_GetObjectItem) for cJSON_GetObjectItem
    wifi.o(i.parsing_time_json_info) refers to uart.o(i.rt_kprintf) for rt_kprintf
    wifi.o(i.parsing_time_json_info) refers to wifi.o(i.paraing_time_string) for paraing_time_string
    wifi.o(i.parsing_time_json_info) refers to cjson.o(i.cJSON_Delete) for cJSON_Delete
    wifi.o(i.parsing_weather_json_info) refers to cjson.o(i.cJSON_Parse) for cJSON_Parse
    wifi.o(i.parsing_weather_json_info) refers to cjson.o(i.cJSON_GetObjectItem) for cJSON_GetObjectItem
    wifi.o(i.parsing_weather_json_info) refers to uart.o(i.rt_kprintf) for rt_kprintf
    wifi.o(i.parsing_weather_json_info) refers to wifi.o(i.parsing_the_str) for parsing_the_str
    wifi.o(i.parsing_weather_json_info) refers to strlen.o(.text) for strlen
    wifi.o(i.parsing_weather_json_info) refers to rt_memcpy_v6.o(.text) for __aeabi_memcpy
    wifi.o(i.parsing_weather_json_info) refers to cjson.o(i.cJSON_Delete) for cJSON_Delete
    wifi.o(i.parsing_weather_json_info) refers to wifi.o(.bss) for .bss
    wifi.o(i.parsing_wifi_mac_data) refers to strstr.o(.text) for strstr
    wifi.o(i.parsing_wifi_mac_data) refers to wifi.o(i.get_data_str_index) for get_data_str_index
    wifi.o(i.parsing_wifi_mac_data) refers to rt_memcpy_v6.o(.text) for __aeabi_memcpy
    wifi.o(i.parsing_wifi_mac_data) refers to uart.o(i.rt_kprintf) for rt_kprintf
    wifi.o(i.parsing_wifi_signal_info) refers to wifi.o(i.get_data_str_index) for get_data_str_index
    wifi.o(i.parsing_wifi_signal_info) refers to uart.o(i.rt_kprintf) for rt_kprintf
    wifi.o(i.print_wifi_weather_time_info) refers to uart.o(i.rt_kprintf2) for rt_kprintf2
    wifi.o(i.print_wifi_weather_time_info) refers to wifi.o(.bss) for .bss
    wifi.o(i.quiry_wifi) refers to rt_memcpy_v6.o(.text) for __aeabi_memcpy
    wifi.o(i.quiry_wifi) refers to queue.o(i.FifoIn) for FifoIn
    wifi.o(i.quiry_wifi) refers to queue.o(.bss) for sOperCmdUnion_wifi
    wifi.o(i.quiry_wifi) refers to wifi.o(.data) for .data
    wifi.o(i.quiry_wifi) refers to queue.o(.bss) for sOperCmdUnionFifo_wifi
    wifi.o(i.quit_network_connect_cmd) refers to rt_memcpy_v6.o(.text) for __aeabi_memcpy
    wifi.o(i.quit_network_connect_cmd) refers to queue.o(i.FifoIn) for FifoIn
    wifi.o(i.quit_network_connect_cmd) refers to queue.o(.bss) for sOperCmdUnion_wifi
    wifi.o(i.quit_network_connect_cmd) refers to wifi.o(.data) for .data
    wifi.o(i.quit_network_connect_cmd) refers to queue.o(.bss) for sOperCmdUnionFifo_wifi
    wifi.o(i.quit_send_data_mode_cmd) refers to rt_memcpy_v6.o(.text) for __aeabi_memcpy
    wifi.o(i.quit_send_data_mode_cmd) refers to queue.o(i.FifoIn) for FifoIn
    wifi.o(i.quit_send_data_mode_cmd) refers to queue.o(.bss) for sOperCmdUnion_wifi
    wifi.o(i.quit_send_data_mode_cmd) refers to wifi.o(.data) for .data
    wifi.o(i.quit_send_data_mode_cmd) refers to queue.o(.bss) for sOperCmdUnionFifo_wifi
    wifi.o(i.send_data) refers to rt_memcpy_v6.o(.text) for __aeabi_memcpy
    wifi.o(i.send_data) refers to queue.o(i.FifoIn) for FifoIn
    wifi.o(i.send_data) refers to queue.o(.bss) for sOperCmdUnion_wifi
    wifi.o(i.send_data) refers to queue.o(.bss) for sOperCmdUnionFifo_wifi
    wifi.o(i.send_weather_data) refers to rt_memcpy_v6.o(.text) for __aeabi_memcpy
    wifi.o(i.send_weather_data) refers to queue.o(i.FifoIn) for FifoIn
    wifi.o(i.send_weather_data) refers to queue.o(.bss) for sOperCmdUnion_wifi
    wifi.o(i.send_weather_data) refers to queue.o(.bss) for sOperCmdUnionFifo_wifi
    wifi.o(i.set_send_mode) refers to rt_memcpy_v6.o(.text) for __aeabi_memcpy
    wifi.o(i.set_send_mode) refers to queue.o(i.FifoIn) for FifoIn
    wifi.o(i.set_send_mode) refers to wifi.o(.data) for .data
    wifi.o(i.set_send_mode) refers to queue.o(.bss) for sOperCmdUnion_wifi
    wifi.o(i.set_send_mode) refers to queue.o(.bss) for sOperCmdUnionFifo_wifi
    wifi.o(i.stop_wifi_network) refers to rt_memcpy_v6.o(.text) for __aeabi_memcpy
    wifi.o(i.stop_wifi_network) refers to queue.o(i.FifoIn) for FifoIn
    wifi.o(i.stop_wifi_network) refers to queue.o(.bss) for sOperCmdUnion_wifi
    wifi.o(i.stop_wifi_network) refers to wifi.o(.data) for .data
    wifi.o(i.stop_wifi_network) refers to queue.o(.bss) for sOperCmdUnionFifo_wifi
    wifi.o(i.wifi_msg_process) refers to timer.o(i.GetSystemTime) for GetSystemTime
    wifi.o(i.wifi_msg_process) refers to uart.o(i.rt_kprintf) for rt_kprintf
    wifi.o(i.wifi_msg_process) refers to uart.o(i.PrintfIOTPort4) for PrintfIOTPort4
    wifi.o(i.wifi_msg_process) refers to queue.o(i.FifoOut) for FifoOut
    wifi.o(i.wifi_msg_process) refers to queue.o(i.queue_out) for queue_out
    wifi.o(i.wifi_msg_process) refers to rt_memclr.o(.text) for __aeabi_memclr
    wifi.o(i.wifi_msg_process) refers to wifi.o(i.WifiStateCheck) for WifiStateCheck
    wifi.o(i.wifi_msg_process) refers to wifi.o(i.connect_wifi_network) for connect_wifi_network
    wifi.o(i.wifi_msg_process) refers to stm32f4xx_it.o(i.delay_ms) for delay_ms
    wifi.o(i.wifi_msg_process) refers to wifi.o(i.parsing_time_json_info) for parsing_time_json_info
    wifi.o(i.wifi_msg_process) refers to wifi.o(i.parsing_weather_json_info) for parsing_weather_json_info
    wifi.o(i.wifi_msg_process) refers to wifi.o(i.parsing_wifi_signal_info) for parsing_wifi_signal_info
    wifi.o(i.wifi_msg_process) refers to wifi.o(i.get_wifi_info_data) for get_wifi_info_data
    wifi.o(i.wifi_msg_process) refers to wifi.o(i.parsing_wifi_mac_data) for parsing_wifi_mac_data
    wifi.o(i.wifi_msg_process) refers to queue.o(.bss) for sOperCmdBuff
    wifi.o(i.wifi_msg_process) refers to queue.o(.bss) for sOperCmdUnionFifo_wifi
    wifi.o(i.wifi_msg_process) refers to uart.o(.data) for FrameInlen
    wifi.o(i.wifi_msg_process) refers to uart.o(.bss) for FrameInBuff
    wifi.o(i.wifi_msg_process) refers to queue.o(.bss) for wifi_queue
    wifi.o(i.wifi_msg_process) refers to msg_deal.o(.bss) for system_var
    wifi.o(i.wifi_msg_process) refers to wifi.o(.bss) for .bss
    timer.o(i.GetSystemTime) refers to msg_deal.o(.bss) for system_data
    timer.o(i.TIM5_IRQHandler) refers to stm32f4xx_tim.o(i.TIM_GetITStatus) for TIM_GetITStatus
    timer.o(i.TIM5_IRQHandler) refers to stm32f4xx_tim.o(i.TIM_ClearITPendingBit) for TIM_ClearITPendingBit
    timer.o(i.TIM5_IRQHandler) refers to uart.o(i.UART1Poll) for UART1Poll
    timer.o(i.TIM5_IRQHandler) refers to uart.o(i.UART2Poll) for UART2Poll
    timer.o(i.TIM5_IRQHandler) refers to uart.o(i.UART3Poll) for UART3Poll
    timer.o(i.TIM5_IRQHandler) refers to uart.o(i.UART4Poll) for UART4Poll
    timer.o(i.TIM5_IRQHandler) refers to led.o(i.LED_BreathingLight) for LED_BreathingLight
    timer.o(i.TIM5_IRQHandler) refers to timer.o(.data) for .data
    timer.o(i.TIM5_IRQHandler) refers to msg_deal.o(.bss) for system_data
    timer.o(i.TIM5_IRQHandler) refers to msg_deal.o(.bss) for system_var
    timer.o(i.TIM5_Init) refers to stm32f4xx_rcc.o(i.RCC_APB1PeriphClockCmd) for RCC_APB1PeriphClockCmd
    timer.o(i.TIM5_Init) refers to misc.o(i.NVIC_Init) for NVIC_Init
    timer.o(i.TIM5_Init) refers to stm32f4xx_tim.o(i.TIM_TimeBaseInit) for TIM_TimeBaseInit
    timer.o(i.TIM5_Init) refers to stm32f4xx_tim.o(i.TIM_PrescalerConfig) for TIM_PrescalerConfig
    timer.o(i.TIM5_Init) refers to stm32f4xx_tim.o(i.TIM_ITConfig) for TIM_ITConfig
    timer.o(i.TIM5_Init) refers to stm32f4xx_tim.o(i.TIM_Cmd) for TIM_Cmd
    ht_sensor.o(i.HTSensorMode) refers to ht_sensor.o(i.IIC_Start) for IIC_Start
    ht_sensor.o(i.HTSensorMode) refers to ht_sensor.o(i.IIC_Send_Byte) for IIC_Send_Byte
    ht_sensor.o(i.HTSensorMode) refers to ht_sensor.o(i.IIC_Wait_Ack) for IIC_Wait_Ack
    ht_sensor.o(i.HTSensorMode) refers to ht_sensor.o(i.IIC_Stop) for IIC_Stop
    ht_sensor.o(i.HTSensor_Init) refers to stm32f4xx_rcc.o(i.RCC_AHB1PeriphClockCmd) for RCC_AHB1PeriphClockCmd
    ht_sensor.o(i.HTSensor_Init) refers to stm32f4xx_gpio.o(i.GPIO_Init) for GPIO_Init
    ht_sensor.o(i.HTSensor_Init) refers to ht_sensor.o(i.HTSensorMode) for HTSensorMode
    ht_sensor.o(i.IIC_Ack) refers to stm32f4xx_it.o(i.delay_us) for delay_us
    ht_sensor.o(i.IIC_NAck) refers to stm32f4xx_it.o(i.delay_us) for delay_us
    ht_sensor.o(i.IIC_Read_Byte) refers to stm32f4xx_it.o(i.delay_us) for delay_us
    ht_sensor.o(i.IIC_Read_Byte) refers to ht_sensor.o(i.IIC_Ack) for IIC_Ack
    ht_sensor.o(i.IIC_Read_Byte) refers to ht_sensor.o(i.IIC_NAck) for IIC_NAck
    ht_sensor.o(i.IIC_Send_Byte) refers to stm32f4xx_it.o(i.delay_us) for delay_us
    ht_sensor.o(i.IIC_Start) refers to stm32f4xx_it.o(i.delay_us) for delay_us
    ht_sensor.o(i.IIC_Stop) refers to stm32f4xx_it.o(i.delay_us) for delay_us
    ht_sensor.o(i.IIC_Wait_Ack) refers to stm32f4xx_it.o(i.delay_us) for delay_us
    ht_sensor.o(i.IIC_Wait_Ack) refers to ht_sensor.o(i.IIC_Stop) for IIC_Stop
    ht_sensor.o(i.PrintHTInfo) refers to ht_sensor.o(i.ReadHTSensorData) for ReadHTSensorData
    ht_sensor.o(i.PrintHTInfo) refers to uart.o(i.rt_kprintf2) for rt_kprintf2
    ht_sensor.o(i.PrintHTInfo) refers to msg_deal.o(.bss) for system_data
    ht_sensor.o(i.ReadHTSensorData) refers to ht_sensor.o(i.IIC_Start) for IIC_Start
    ht_sensor.o(i.ReadHTSensorData) refers to ht_sensor.o(i.IIC_Send_Byte) for IIC_Send_Byte
    ht_sensor.o(i.ReadHTSensorData) refers to ht_sensor.o(i.IIC_Wait_Ack) for IIC_Wait_Ack
    ht_sensor.o(i.ReadHTSensorData) refers to ht_sensor.o(i.IIC_Read_Byte) for IIC_Read_Byte
    ht_sensor.o(i.ReadHTSensorData) refers to ht_sensor.o(i.IIC_Stop) for IIC_Stop
    ht_sensor.o(i.ReadHTSensorData) refers to msg_deal.o(.bss) for system_data
    msg_deal.o(i.diag_cmd_complete) refers to uart.o(i.rt_kprintf) for rt_kprintf
    msg_deal.o(i.diag_cmd_input) refers to uart.o(i.rt_kprintf) for rt_kprintf
    msg_deal.o(i.diag_cmd_input) refers to rt_memcpy_v6.o(.text) for __aeabi_memcpy
    msg_deal.o(i.diag_cmd_input) refers to msg_deal.o(i.diag_cmd_process) for diag_cmd_process
    msg_deal.o(i.diag_cmd_input) refers to msg_deal.o(.data) for .data
    msg_deal.o(i.diag_cmd_input) refers to msg_deal.o(.bss) for .bss
    msg_deal.o(i.diag_cmd_process) refers to msg_deal.o(i.find_cmd) for find_cmd
    msg_deal.o(i.diag_cmd_process) refers to msg_deal.o(i.diag_cmd_para_parse) for diag_cmd_para_parse
    msg_deal.o(i.diag_cmd_process) refers to uart.o(i.rt_kprintf) for rt_kprintf
    msg_deal.o(i.diag_cmd_start) refers to uart.o(i.rt_kprintf) for rt_kprintf
    msg_deal.o(i.diag_help) refers to uart.o(i.rt_kprintf) for rt_kprintf
    msg_deal.o(i.diag_help) refers to msg_deal.o(.data) for .data
    msg_deal.o(i.find_cmd) refers to msg_deal.o(i.diag_cmd_compare) for diag_cmd_compare
    msg_deal.o(i.find_cmd) refers to uart.o(i.rt_kprintf) for rt_kprintf
    msg_deal.o(i.find_cmd) refers to msg_deal.o(.data) for .data
    msg_deal.o(i.periodic_task_process) refers to uart.o(i.rt_kprintf) for rt_kprintf
    msg_deal.o(i.periodic_task_process) refers to wifi.o(i.get_network_time_cmds) for get_network_time_cmds
    msg_deal.o(i.periodic_task_process) refers to ht_sensor.o(i.PrintHTInfo) for PrintHTInfo
    msg_deal.o(i.periodic_task_process) refers to wifi.o(i.print_wifi_weather_time_info) for print_wifi_weather_time_info
    msg_deal.o(i.periodic_task_process) refers to oled.o(i.OLED_Clear) for OLED_Clear
    msg_deal.o(i.periodic_task_process) refers to msg_deal.o(.bss) for .bss
    msg_deal.o(i.print_weather_and_time_info) refers to uart.o(i.rt_kprintf) for rt_kprintf
    msg_deal.o(i.print_weather_and_time_info) refers to wifi.o(.bss) for time_and_weather_g
    msg_deal.o(i.shell_init) refers to uart.o(i.UART1Init) for UART1Init
    msg_deal.o(i.shell_init) refers to queue.o(i.queue_init) for queue_init
    msg_deal.o(i.shell_init) refers to msg_deal.o(i.diag_cmd_start) for diag_cmd_start
    msg_deal.o(i.shell_init) refers to queue.o(.bss) for MyQueue
    msg_deal.o(i.shell_process) refers to uart.o(i.Uart1Read) for Uart1Read
    msg_deal.o(i.shell_process) refers to msg_deal.o(i.diag_cmd_input) for diag_cmd_input
    msg_deal.o(i.shell_process) refers to msg_deal.o(i.diag_cmd_complete) for diag_cmd_complete
    msg_deal.o(i.shell_process) refers to msg_deal.o(i.diag_cmd_start) for diag_cmd_start
    msg_deal.o(i.shell_process) refers to uart.o(.data) for UART1FramInFlag
    msg_deal.o(i.shell_process) refers to uart.o(.bss) for FrameInBuff
    msg_deal.o(i.shell_process) refers to uart.o(.data) for FrameInlen
    msg_deal.o(i.test2) refers to uart.o(i.rt_kprintf) for rt_kprintf
    msg_deal.o(i.test3) refers to uart.o(i.rt_kprintf) for rt_kprintf
    msg_deal.o(.data) refers to msg_deal.o(.conststring) for .conststring
    msg_deal.o(.data) refers to msg_deal.o(i.diag_help) for diag_help
    msg_deal.o(.data) refers to msg_deal.o(i.print_weather_and_time_info) for print_weather_and_time_info
    msg_deal.o(.data) refers to msg_deal.o(i.test2) for test2
    msg_deal.o(.data) refers to msg_deal.o(i.test3) for test3
    msg_deal.o(.data) refers to oled.o(i.OLED_Clear) for OLED_Clear
    show.o(i.show_interface_oled) refers to _printf_percent.o(.ARM.Collect$$_printf_percent$$00000000) for _printf_percent
    show.o(i.show_interface_oled) refers to _printf_s.o(.ARM.Collect$$_printf_percent$$00000014) for _printf_s
    show.o(i.show_interface_oled) refers to _printf_str.o(.text) for _printf_str
    show.o(i.show_interface_oled) refers to _printf_d.o(.ARM.Collect$$_printf_percent$$00000009) for _printf_d
    show.o(i.show_interface_oled) refers to _printf_dec.o(.text) for _printf_int_dec
    show.o(i.show_interface_oled) refers to _printf_pad.o(.text) for _printf_pre_padding
    show.o(i.show_interface_oled) refers to oled.o(i.OLED_DrawBMP) for OLED_DrawBMP
    show.o(i.show_interface_oled) refers to oled.o(i.show_common_string) for show_common_string
    show.o(i.show_interface_oled) refers to oled.o(i.OLED_Clear) for OLED_Clear
    show.o(i.show_interface_oled) refers to show.o(i.wifi_bmp_clear) for wifi_bmp_clear
    show.o(i.show_interface_oled) refers to oled.o(i.show_line) for show_line
    show.o(i.show_interface_oled) refers to __2sprintf.o(.text) for __2sprintf
    show.o(i.show_interface_oled) refers to oled.o(i.OLED_ShowCHinese) for OLED_ShowCHinese
    show.o(i.show_interface_oled) refers to oled.o(i.show_t_rh_string) for show_t_rh_string
    show.o(i.show_interface_oled) refers to stm32f4xx_rtc.o(i.RTC_GetDate) for RTC_GetDate
    show.o(i.show_interface_oled) refers to oled.o(i.show_date_str) for show_date_str
    show.o(i.show_interface_oled) refers to stm32f4xx_rtc.o(i.RTC_GetTime) for RTC_GetTime
    show.o(i.show_interface_oled) refers to oled.o(i.show_time_str) for show_time_str
    show.o(i.show_interface_oled) refers to uart.o(i.rt_kprintf) for rt_kprintf
    show.o(i.show_interface_oled) refers to show.o(.data) for .data
    show.o(i.show_interface_oled) refers to wifi.o(.bss) for time_and_weather_g
    show.o(i.show_interface_oled) refers to msg_deal.o(.bss) for system_var
    show.o(i.show_interface_oled) refers to msg_deal.o(.bss) for system_data
    show.o(i.show_interface_oled) refers to bmp.o(.data) for advanced_clock
    show.o(i.show_interface_oled) refers to oledfont.o(.data) for connect
    show.o(i.show_interface_oled) refers to show.o(.bss) for .bss
    show.o(i.show_interface_oled) refers to oledfont.o(.data) for signal_bmp1
    show.o(i.show_interface_oled) refers to oledfont.o(.data) for signal_idle
    show.o(i.show_interface_oled) refers to oledfont.o(.data) for battery_bmp2
    show.o(i.show_interface_oled) refers to oledfont.o(.data) for f_city
    show.o(i.show_interface_oled) refers to bmp.o(.data) for weather_icon
    show.o(i.wifi_bmp_clear) refers to oled.o(i.OLED_Set_Pos) for OLED_Set_Pos
    show.o(i.wifi_bmp_clear) refers to oled.o(i.OLED_WR_Byte) for OLED_WR_Byte
    malloc.o(.text) refers (Special) to hguard.o(.text) for __heap$guard
    malloc.o(.text) refers (Special) to init_alloc.o(.text) for _init_alloc
    malloc.o(.text) refers to rt_heap_descriptor_intlibspace.o(.text) for __rt_heap_descriptor
    malloc.o(.text) refers to heapstubs.o(.text) for __Heap_Alloc
    free.o(.text) refers (Special) to hguard.o(.text) for __heap$guard
    free.o(.text) refers to rt_heap_descriptor_intlibspace.o(.text) for __rt_heap_descriptor
    free.o(.text) refers to heapstubs.o(.text) for __Heap_Free
    h1_alloc.o(.text) refers (Special) to h1_init.o(.text) for __Heap_Initialize
    h1_alloc.o(.text) refers to rt_heap_descriptor_intlibspace.o(.text) for __rt_heap_descriptor
    h1_alloc.o(.text) refers to init_alloc.o(.text) for __Heap_Full
    h1_free.o(.text) refers to rt_heap_descriptor_intlibspace.o(.text) for __rt_heap_descriptor
    h1_alloc_mt.o(.text) refers (Special) to h1_init.o(.text) for __Heap_Initialize
    h1_alloc_mt.o(.text) refers to init_alloc.o(.text) for __Heap_Full
    h1_alloc_mt.o(.text) refers to rt_heap_descriptor_intlibspace.o(.text) for __rt_heap_descriptor
    h1_free_mt.o(.text) refers to rt_heap_descriptor_intlibspace.o(.text) for __rt_heap_descriptor
    heap2.o(i._FDIterate) refers to heap2.o(.conststring) for .conststring
    heap2.o(i.___Heap_ProvideMemory$realtime) refers to fdtree.o(i._FDTree_Delete) for _FDTree_Delete
    heap2.o(i.___Heap_ProvideMemory$realtime) refers to fdtree.o(i._FDTree_Insert) for _FDTree_Insert
    heap2.o(i.___Heap_Stats$realtime) refers to heap2.o(i._Heap2_StatsIterate) for _Heap2_StatsIterate
    heap2.o(i.___Heap_Valid$realtime) refers to heap2.o(i._FDIterate) for _FDIterate
    heap2.o(i.___Heap_Valid$realtime) refers to heap2.o(.conststring) for .conststring
    heap2.o(i._free$realtime) refers to rt_heap_descriptor_intlibspace.o(.text) for __rt_heap_descriptor
    heap2.o(i._free$realtime) refers to fdtree.o(i._FDTree_Delete) for _FDTree_Delete
    heap2.o(i._free$realtime) refers to fdtree.o(i._FDTree_Insert) for _FDTree_Insert
    heap2.o(i._malloc$realtime) refers to rt_heap_descriptor_intlibspace.o(.text) for __rt_heap_descriptor
    heap2.o(i._malloc$realtime) refers to fdtree.o(i._FDTree_FindFirst) for _FDTree_FindFirst
    heap2.o(i._malloc$realtime) refers to init_alloc.o(.text) for __Heap_Full
    heap2.o(i._malloc$realtime) refers to fdtree.o(i._FDTree_RemoveNode) for _FDTree_RemoveNode
    heap2.o(i._malloc$realtime) refers to fdtree.o(i._FDTree_Insert) for _FDTree_Insert
    heap2.o(i._posix_memalign$realtime) refers to rt_heap_descriptor_intlibspace.o(.text) for __rt_heap_descriptor
    heap2.o(i._posix_memalign$realtime) refers to fdtree.o(i._FDTree_FindFirst) for _FDTree_FindFirst
    heap2.o(i._posix_memalign$realtime) refers to init_alloc.o(.text) for __Heap_Full
    heap2.o(i._posix_memalign$realtime) refers to fdtree.o(i._FDTree_RemoveNode) for _FDTree_RemoveNode
    heap2.o(i._posix_memalign$realtime) refers to fdtree.o(i._FDTree_Insert) for _FDTree_Insert
    heap2.o(i._realloc$realtime) refers to rt_heap_descriptor_intlibspace.o(.text) for __rt_heap_descriptor
    heap2.o(i._realloc$realtime) refers to fdtree.o(i._FDTree_Insert) for _FDTree_Insert
    heap2.o(i._realloc$realtime) refers to h1_free.o(.text) for free
    heap2.o(i._realloc$realtime) refers to h1_alloc.o(.text) for malloc
    heap2.o(i._realloc$realtime) refers to fdtree.o(i._FDTree_Delete) for _FDTree_Delete
    heap2.o(i._realloc$realtime) refers to rt_memcpy_w.o(.text) for __aeabi_memcpy4
    heap2mt.o(i._FDIterate) refers to heap2mt.o(.conststring) for .conststring
    heap2mt.o(i.___Heap_Initialize$realtime$concurrent) refers to mutex_dummy.o(.text) for _mutex_initialize
    heap2mt.o(i.___Heap_ProvideMemory$realtime$concurrent) refers to fdtree.o(i._FDTree_Delete) for _FDTree_Delete
    heap2mt.o(i.___Heap_ProvideMemory$realtime$concurrent) refers to fdtree.o(i._FDTree_Insert) for _FDTree_Insert
    heap2mt.o(i.___Heap_Stats$realtime$concurrent) refers to heap2mt.o(i._Heap2_StatsIterate) for _Heap2_StatsIterate
    heap2mt.o(i.___Heap_Valid$realtime$concurrent) refers to heap2mt.o(i._FDIterate) for _FDIterate
    heap2mt.o(i.___Heap_Valid$realtime$concurrent) refers to heap2mt.o(.conststring) for .conststring
    heap2mt.o(i._free$realtime$concurrent) refers to rt_heap_descriptor_intlibspace.o(.text) for __rt_heap_descriptor
    heap2mt.o(i._free$realtime$concurrent) refers to fdtree.o(i._FDTree_Delete) for _FDTree_Delete
    heap2mt.o(i._free$realtime$concurrent) refers to fdtree.o(i._FDTree_Insert) for _FDTree_Insert
    heap2mt.o(i._malloc$realtime$concurrent) refers to rt_heap_descriptor_intlibspace.o(.text) for __rt_heap_descriptor
    heap2mt.o(i._malloc$realtime$concurrent) refers to fdtree.o(i._FDTree_FindFirst) for _FDTree_FindFirst
    heap2mt.o(i._malloc$realtime$concurrent) refers to init_alloc.o(.text) for __Heap_Full
    heap2mt.o(i._malloc$realtime$concurrent) refers to fdtree.o(i._FDTree_RemoveNode) for _FDTree_RemoveNode
    heap2mt.o(i._malloc$realtime$concurrent) refers to fdtree.o(i._FDTree_Insert) for _FDTree_Insert
    heap2mt.o(i._posix_memalign$realtime$concurrent) refers to rt_heap_descriptor_intlibspace.o(.text) for __rt_heap_descriptor
    heap2mt.o(i._posix_memalign$realtime$concurrent) refers to fdtree.o(i._FDTree_FindFirst) for _FDTree_FindFirst
    heap2mt.o(i._posix_memalign$realtime$concurrent) refers to init_alloc.o(.text) for __Heap_Full
    heap2mt.o(i._posix_memalign$realtime$concurrent) refers to fdtree.o(i._FDTree_RemoveNode) for _FDTree_RemoveNode
    heap2mt.o(i._posix_memalign$realtime$concurrent) refers to fdtree.o(i._FDTree_Insert) for _FDTree_Insert
    heap2mt.o(i._realloc$realtime$concurrent) refers to rt_heap_descriptor_intlibspace.o(.text) for __rt_heap_descriptor
    heap2mt.o(i._realloc$realtime$concurrent) refers to fdtree.o(i._FDTree_Insert) for _FDTree_Insert
    heap2mt.o(i._realloc$realtime$concurrent) refers to h1_free.o(.text) for free
    heap2mt.o(i._realloc$realtime$concurrent) refers to h1_alloc.o(.text) for malloc
    heap2mt.o(i._realloc$realtime$concurrent) refers to fdtree.o(i._FDTree_Delete) for _FDTree_Delete
    heap2mt.o(i._realloc$realtime$concurrent) refers to rt_memcpy_w.o(.text) for __aeabi_memcpy4
    tolower.o(.text) refers to rt_ctype_table.o(.text) for __rt_ctype_table
    vsnprintf.o(.text) refers (Special) to _printf_a.o(.ARM.Collect$$_printf_percent$$00000006) for _printf_a
    vsnprintf.o(.text) refers (Special) to _printf_c.o(.ARM.Collect$$_printf_percent$$00000013) for _printf_c
    vsnprintf.o(.text) refers (Special) to _printf_charcount.o(.text) for _printf_charcount
    vsnprintf.o(.text) refers (Special) to _printf_d.o(.ARM.Collect$$_printf_percent$$00000009) for _printf_d
    vsnprintf.o(.text) refers (Special) to _printf_e.o(.ARM.Collect$$_printf_percent$$00000004) for _printf_e
    vsnprintf.o(.text) refers (Special) to _printf_f.o(.ARM.Collect$$_printf_percent$$00000003) for _printf_f
    vsnprintf.o(.text) refers (Special) to printf1.o(x$fpl$printf1) for _printf_fp_dec
    vsnprintf.o(.text) refers (Special) to printf2.o(x$fpl$printf2) for _printf_fp_hex
    vsnprintf.o(.text) refers (Special) to _printf_g.o(.ARM.Collect$$_printf_percent$$00000005) for _printf_g
    vsnprintf.o(.text) refers (Special) to _printf_i.o(.ARM.Collect$$_printf_percent$$00000008) for _printf_i
    vsnprintf.o(.text) refers (Special) to _printf_dec.o(.text) for _printf_int_dec
    vsnprintf.o(.text) refers (Special) to _printf_l.o(.ARM.Collect$$_printf_percent$$00000012) for _printf_l
    vsnprintf.o(.text) refers (Special) to _printf_lc.o(.ARM.Collect$$_printf_percent$$00000015) for _printf_lc
    vsnprintf.o(.text) refers (Special) to _printf_ll.o(.ARM.Collect$$_printf_percent$$00000007) for _printf_ll
    vsnprintf.o(.text) refers (Special) to _printf_lld.o(.ARM.Collect$$_printf_percent$$0000000E) for _printf_lld
    vsnprintf.o(.text) refers (Special) to _printf_lli.o(.ARM.Collect$$_printf_percent$$0000000D) for _printf_lli
    vsnprintf.o(.text) refers (Special) to _printf_llo.o(.ARM.Collect$$_printf_percent$$00000010) for _printf_llo
    vsnprintf.o(.text) refers (Special) to _printf_llu.o(.ARM.Collect$$_printf_percent$$0000000F) for _printf_llu
    vsnprintf.o(.text) refers (Special) to _printf_llx.o(.ARM.Collect$$_printf_percent$$00000011) for _printf_llx
    vsnprintf.o(.text) refers (Special) to _printf_longlong_dec.o(.text) for _printf_longlong_dec
    vsnprintf.o(.text) refers (Special) to _printf_hex_int_ll_ptr.o(.text) for _printf_longlong_hex
    vsnprintf.o(.text) refers (Special) to _printf_oct_int_ll.o(.text) for _printf_longlong_oct
    vsnprintf.o(.text) refers (Special) to _printf_ls.o(.ARM.Collect$$_printf_percent$$00000016) for _printf_ls
    vsnprintf.o(.text) refers (Special) to _printf_n.o(.ARM.Collect$$_printf_percent$$00000001) for _printf_n
    vsnprintf.o(.text) refers (Special) to _printf_o.o(.ARM.Collect$$_printf_percent$$0000000B) for _printf_o
    vsnprintf.o(.text) refers (Special) to _printf_p.o(.ARM.Collect$$_printf_percent$$00000002) for _printf_p
    vsnprintf.o(.text) refers (Special) to _printf_percent.o(.ARM.Collect$$_printf_percent$$00000000) for _printf_percent
    vsnprintf.o(.text) refers (Special) to _printf_pad.o(.text) for _printf_post_padding
    vsnprintf.o(.text) refers (Special) to _printf_s.o(.ARM.Collect$$_printf_percent$$00000014) for _printf_s
    vsnprintf.o(.text) refers (Special) to _printf_str.o(.text) for _printf_str
    vsnprintf.o(.text) refers (Special) to _printf_truncate.o(.text) for _printf_truncate_signed
    vsnprintf.o(.text) refers (Special) to _printf_u.o(.ARM.Collect$$_printf_percent$$0000000A) for _printf_u
    vsnprintf.o(.text) refers (Special) to _printf_wctomb.o(.text) for _printf_wctomb
    vsnprintf.o(.text) refers (Special) to _printf_x.o(.ARM.Collect$$_printf_percent$$0000000C) for _printf_x
    vsnprintf.o(.text) refers to _printf_char_common.o(.text) for _printf_char_common
    vsnprintf.o(.text) refers to _sputc.o(.text) for _sputc
    vsnprintf.o(.text) refers to _snputc.o(.text) for _snputc
    __2sprintf.o(.text) refers to _printf_char_common.o(.text) for _printf_char_common
    __2sprintf.o(.text) refers to _sputc.o(.text) for _sputc
    noretval__2sprintf.o(.text) refers to _printf_char_common.o(.text) for _printf_char_common
    noretval__2sprintf.o(.text) refers to _sputc.o(.text) for _sputc
    __printf.o(.text) refers to _printf_percent.o(.ARM.Collect$$_printf_percent$$00000000) for _printf_percent
    _printf_str.o(.text) refers (Special) to _printf_char.o(.text) for _printf_cs_common
    _printf_str.o(.text) refers (Weak) to _printf_pad.o(.text) for _printf_pre_padding
    _printf_str.o(.text) refers (Weak) to _printf_pad.o(.text) for _printf_post_padding
    _printf_dec.o(.text) refers (Weak) to _printf_truncate.o(.text) for _printf_truncate_signed
    _printf_dec.o(.text) refers (Weak) to _printf_truncate.o(.text) for _printf_truncate_unsigned
    _printf_dec.o(.text) refers to _printf_intcommon.o(.text) for _printf_int_common
    _printf_hex_ll.o(.text) refers to _printf_intcommon.o(.text) for _printf_int_common
    _printf_hex_ll.o(.text) refers to _printf_hex_ll.o(.constdata) for .constdata
    _printf_hex_int.o(.text) refers (Weak) to _printf_truncate.o(.text) for _printf_truncate_unsigned
    _printf_hex_int.o(.text) refers to _printf_intcommon.o(.text) for _printf_int_common
    _printf_hex_int.o(.text) refers to _printf_hex_int.o(.constdata) for .constdata
    _printf_hex_int_ll.o(.text) refers to _printf_intcommon.o(.text) for _printf_int_common
    _printf_hex_int_ll.o(.text) refers (Weak) to _printf_truncate.o(.text) for _printf_truncate_unsigned
    _printf_hex_int_ll.o(.text) refers to _printf_hex_int_ll.o(.constdata) for .constdata
    _printf_hex_ptr.o(.text) refers to _printf_intcommon.o(.text) for _printf_int_common
    _printf_hex_ptr.o(.text) refers to _printf_hex_ptr.o(.constdata) for .constdata
    _printf_hex_int_ptr.o(.text) refers to _printf_intcommon.o(.text) for _printf_int_common
    _printf_hex_int_ptr.o(.text) refers (Weak) to _printf_truncate.o(.text) for _printf_truncate_unsigned
    _printf_hex_int_ptr.o(.text) refers to _printf_hex_int_ptr.o(.constdata) for .constdata
    _printf_hex_ll_ptr.o(.text) refers to _printf_intcommon.o(.text) for _printf_int_common
    _printf_hex_ll_ptr.o(.text) refers to _printf_hex_ll_ptr.o(.constdata) for .constdata
    _printf_hex_int_ll_ptr.o(.text) refers to _printf_intcommon.o(.text) for _printf_int_common
    _printf_hex_int_ll_ptr.o(.text) refers (Weak) to _printf_truncate.o(.text) for _printf_truncate_unsigned
    _printf_hex_int_ll_ptr.o(.text) refers to _printf_hex_int_ll_ptr.o(.constdata) for .constdata
    __printf_flags.o(.text) refers to _printf_percent.o(.ARM.Collect$$_printf_percent$$00000000) for _printf_percent
    __printf_flags.o(.text) refers to __printf_flags.o(.constdata) for .constdata
    __printf_ss.o(.text) refers to _printf_percent.o(.ARM.Collect$$_printf_percent$$00000000) for _printf_percent
    __printf_flags_ss.o(.text) refers to _printf_percent.o(.ARM.Collect$$_printf_percent$$00000000) for _printf_percent
    __printf_flags_ss.o(.text) refers to __printf_flags_ss.o(.constdata) for .constdata
    __printf_wp.o(.text) refers to __printf_wp.o(i._is_digit) for _is_digit
    __printf_wp.o(.text) refers to _printf_percent.o(.ARM.Collect$$_printf_percent$$00000000) for _printf_percent
    __printf_flags_wp.o(.text) refers to __printf_wp.o(i._is_digit) for _is_digit
    __printf_flags_wp.o(.text) refers to _printf_percent.o(.ARM.Collect$$_printf_percent$$00000000) for _printf_percent
    __printf_flags_wp.o(.text) refers to __printf_flags_wp.o(.constdata) for .constdata
    __printf_ss_wp.o(.text) refers to __printf_wp.o(i._is_digit) for _is_digit
    __printf_ss_wp.o(.text) refers to _printf_percent.o(.ARM.Collect$$_printf_percent$$00000000) for _printf_percent
    __printf_flags_ss_wp.o(.text) refers to __printf_wp.o(i._is_digit) for _is_digit
    __printf_flags_ss_wp.o(.text) refers to _printf_percent.o(.ARM.Collect$$_printf_percent$$00000000) for _printf_percent
    __printf_flags_ss_wp.o(.text) refers to __printf_flags_ss_wp.o(.constdata) for .constdata
    _printf_s.o(.ARM.Collect$$_printf_percent$$00000014) refers (Weak) to _printf_char.o(.text) for _printf_string
    _printf_x.o(.ARM.Collect$$_printf_percent$$0000000C) refers (Weak) to _printf_hex_int_ll_ptr.o(.text) for _printf_int_hex
    _printf_d.o(.ARM.Collect$$_printf_percent$$00000009) refers (Weak) to _printf_dec.o(.text) for _printf_int_dec
    _printf_f.o(.ARM.Collect$$_printf_percent$$00000003) refers (Weak) to printf1.o(x$fpl$printf1) for _printf_fp_dec
    _printf_e.o(.ARM.Collect$$_printf_percent$$00000004) refers (Weak) to printf1.o(x$fpl$printf1) for _printf_fp_dec
    _printf_percent.o(.ARM.Collect$$_printf_percent$$00000000) refers (Special) to _printf_percent_end.o(.ARM.Collect$$_printf_percent$$00000017) for _printf_percent_end
    rt_memcpy_v6.o(.text) refers to rt_memcpy_w.o(.text) for __aeabi_memcpy4
    rt_memclr.o(.text) refers to rt_memclr_w.o(.text) for _memset_w
    __main.o(!!!main) refers to __rtentry.o(.ARM.Collect$$rtentry$$00000000) for __rt_entry
    daddsub_clz.o(x$fpl$dadd) refers (Special) to usenofp.o(x$fpl$usenofp) for __I$use$fp
    daddsub_clz.o(x$fpl$dadd) refers to daddsub_clz.o(x$fpl$dsub) for _dsub1
    daddsub_clz.o(x$fpl$dadd) refers to dretinf.o(x$fpl$dretinf) for __fpl_dretinf
    daddsub_clz.o(x$fpl$dadd) refers to dnaninf.o(x$fpl$dnaninf) for __fpl_dnaninf
    daddsub_clz.o(x$fpl$drsb) refers (Special) to usenofp.o(x$fpl$usenofp) for __I$use$fp
    daddsub_clz.o(x$fpl$drsb) refers to daddsub_clz.o(x$fpl$dadd) for _dadd1
    daddsub_clz.o(x$fpl$drsb) refers to daddsub_clz.o(x$fpl$dsub) for _dsub1
    daddsub_clz.o(x$fpl$dsub) refers (Special) to usenofp.o(x$fpl$usenofp) for __I$use$fp
    daddsub_clz.o(x$fpl$dsub) refers to daddsub_clz.o(x$fpl$dadd) for _dadd1
    daddsub_clz.o(x$fpl$dsub) refers to dnaninf.o(x$fpl$dnaninf) for __fpl_dnaninf
    deqf.o(x$fpl$deqf) refers (Special) to usenofp.o(x$fpl$usenofp) for __I$use$fp
    deqf.o(x$fpl$deqf) refers to dnaninf.o(x$fpl$dnaninf) for __fpl_dnaninf
    deqf.o(x$fpl$deqf) refers to dcmpi.o(x$fpl$dcmpinf) for __fpl_dcmp_Inf
    dfix.o(x$fpl$dfix) refers (Special) to usenofp.o(x$fpl$usenofp) for __I$use$fp
    dfix.o(x$fpl$dfix) refers to dnaninf.o(x$fpl$dnaninf) for __fpl_dnaninf
    dfix.o(x$fpl$dfixr) refers (Special) to usenofp.o(x$fpl$usenofp) for __I$use$fp
    dfix.o(x$fpl$dfixr) refers to dnaninf.o(x$fpl$dnaninf) for __fpl_dnaninf
    dfixu.o(x$fpl$dfixu) refers (Special) to usenofp.o(x$fpl$usenofp) for __I$use$fp
    dfixu.o(x$fpl$dfixu) refers to dnaninf.o(x$fpl$dnaninf) for __fpl_dnaninf
    dfixu.o(x$fpl$dfixur) refers (Special) to usenofp.o(x$fpl$usenofp) for __I$use$fp
    dfixu.o(x$fpl$dfixur) refers to dnaninf.o(x$fpl$dnaninf) for __fpl_dnaninf
    dflt_clz.o(x$fpl$dfltu) refers (Special) to usenofp.o(x$fpl$usenofp) for __I$use$fp
    dflt_clz.o(x$fpl$dflt) refers (Special) to usenofp.o(x$fpl$usenofp) for __I$use$fp
    dflt_clz.o(x$fpl$dfltn) refers (Special) to usenofp.o(x$fpl$usenofp) for __I$use$fp
    dleqf.o(x$fpl$dleqf) refers (Special) to usenofp.o(x$fpl$usenofp) for __I$use$fp
    dleqf.o(x$fpl$dleqf) refers to dnaninf.o(x$fpl$dnaninf) for __fpl_dnaninf
    dleqf.o(x$fpl$dleqf) refers to dcmpi.o(x$fpl$dcmpinf) for __fpl_dcmp_Inf
    dmul.o(x$fpl$dmul) refers (Special) to usenofp.o(x$fpl$usenofp) for __I$use$fp
    dmul.o(x$fpl$dmul) refers to dretinf.o(x$fpl$dretinf) for __fpl_dretinf
    dmul.o(x$fpl$dmul) refers to dnaninf.o(x$fpl$dnaninf) for __fpl_dnaninf
    drleqf.o(x$fpl$drleqf) refers (Special) to usenofp.o(x$fpl$usenofp) for __I$use$fp
    drleqf.o(x$fpl$drleqf) refers to dleqf.o(x$fpl$dleqf) for __fpl_dcmple_InfNaN
    f2d.o(x$fpl$f2d) refers (Special) to usenofp.o(x$fpl$usenofp) for __I$use$fp
    f2d.o(x$fpl$f2d) refers to fnaninf.o(x$fpl$fnaninf) for __fpl_fnaninf
    f2d.o(x$fpl$f2d) refers to dretinf.o(x$fpl$dretinf) for __fpl_dretinf
    printf1.o(x$fpl$printf1) refers to _printf_fp_dec.o(.text) for _printf_fp_dec_real
    fabs.o(i.__hardfp_fabs) refers (Special) to usenofp.o(x$fpl$usenofp) for __I$use$fp
    fabs.o(i.__softfp_fabs) refers (Special) to usenofp.o(x$fpl$usenofp) for __I$use$fp
    fabs.o(i.fabs) refers (Special) to usenofp.o(x$fpl$usenofp) for __I$use$fp
    floor.o(i.__hardfp_floor) refers (Special) to usenofp.o(x$fpl$usenofp) for __I$use$fp
    floor.o(i.__hardfp_floor) refers to daddsub_clz.o(x$fpl$dadd) for __aeabi_dadd
    floor.o(i.__hardfp_floor) refers to drleqf.o(x$fpl$drleqf) for __aeabi_cdrcmple
    floor.o(i.__hardfp_floor) refers to daddsub_clz.o(x$fpl$drsb) for __aeabi_drsub
    floor.o(i.__softfp_floor) refers (Special) to usenofp.o(x$fpl$usenofp) for __I$use$fp
    floor.o(i.__softfp_floor) refers to floor.o(i.__hardfp_floor) for __hardfp_floor
    floor.o(i.floor) refers (Special) to usenofp.o(x$fpl$usenofp) for __I$use$fp
    floor.o(i.floor) refers to floor.o(i.__hardfp_floor) for __hardfp_floor
    pow.o(i.__hardfp_pow) refers (Special) to usenofp.o(x$fpl$usenofp) for __I$use$fp
    pow.o(i.__hardfp_pow) refers to dunder.o(i.__mathlib_dbl_infnan2) for __mathlib_dbl_infnan2
    pow.o(i.__hardfp_pow) refers to _rserrno.o(.text) for __set_errno
    pow.o(i.__hardfp_pow) refers to dunder.o(i.__mathlib_dbl_divzero) for __mathlib_dbl_divzero
    pow.o(i.__hardfp_pow) refers to basic.o(x$fpl$basic) for __aeabi_dneg
    pow.o(i.__hardfp_pow) refers to dunder.o(i.__mathlib_dbl_overflow) for __mathlib_dbl_overflow
    pow.o(i.__hardfp_pow) refers to ddiv.o(x$fpl$ddiv) for __aeabi_ddiv
    pow.o(i.__hardfp_pow) refers to sqrt.o(i.sqrt) for sqrt
    pow.o(i.__hardfp_pow) refers to fabs.o(i.fabs) for fabs
    pow.o(i.__hardfp_pow) refers to dflt_clz.o(x$fpl$dflt) for __aeabi_i2d
    pow.o(i.__hardfp_pow) refers to dunder.o(i.__mathlib_dbl_invalid) for __mathlib_dbl_invalid
    pow.o(i.__hardfp_pow) refers to dmul.o(x$fpl$dmul) for __aeabi_dmul
    pow.o(i.__hardfp_pow) refers to dunder.o(i.__mathlib_dbl_underflow) for __mathlib_dbl_underflow
    pow.o(i.__hardfp_pow) refers to daddsub_clz.o(x$fpl$dsub) for __aeabi_dsub
    pow.o(i.__hardfp_pow) refers to daddsub_clz.o(x$fpl$drsb) for __aeabi_drsub
    pow.o(i.__hardfp_pow) refers to qnan.o(.constdata) for __mathlib_zero
    pow.o(i.__hardfp_pow) refers to daddsub_clz.o(x$fpl$dadd) for __aeabi_dadd
    pow.o(i.__hardfp_pow) refers to poly.o(i.__kernel_poly) for __kernel_poly
    pow.o(i.__hardfp_pow) refers to pow.o(.constdata) for .constdata
    pow.o(i.__hardfp_pow) refers to drleqf.o(x$fpl$drleqf) for __aeabi_cdrcmple
    pow.o(i.__hardfp_pow) refers to scalbn.o(x$fpl$scalbn) for __ARM_scalbn
    pow.o(i.__hardfp_pow) refers to fpclassify.o(i.__ARM_fpclassify) for __ARM_fpclassify
    pow.o(i.__softfp_pow) refers (Special) to usenofp.o(x$fpl$usenofp) for __I$use$fp
    pow.o(i.__softfp_pow) refers to pow.o(i.__hardfp_pow) for __hardfp_pow
    pow.o(i.pow) refers (Special) to usenofp.o(x$fpl$usenofp) for __I$use$fp
    pow.o(i.pow) refers to pow.o(i.__hardfp_pow) for __hardfp_pow
    pow.o(.constdata) refers (Special) to usenofp.o(x$fpl$usenofp) for __I$use$fp
    pow_x.o(i.____hardfp_pow$lsc) refers (Special) to usenofp.o(x$fpl$usenofp) for __I$use$fp
    pow_x.o(i.____hardfp_pow$lsc) refers to dunder.o(i.__mathlib_dbl_infnan2) for __mathlib_dbl_infnan2
    pow_x.o(i.____hardfp_pow$lsc) refers to _rserrno.o(.text) for __set_errno
    pow_x.o(i.____hardfp_pow$lsc) refers to basic.o(x$fpl$basic) for __aeabi_dneg
    pow_x.o(i.____hardfp_pow$lsc) refers to ddiv.o(x$fpl$ddiv) for __aeabi_ddiv
    pow_x.o(i.____hardfp_pow$lsc) refers to sqrt.o(i.sqrt) for sqrt
    pow_x.o(i.____hardfp_pow$lsc) refers to fabs.o(i.fabs) for fabs
    pow_x.o(i.____hardfp_pow$lsc) refers to dflt_clz.o(x$fpl$dflt) for __aeabi_i2d
    pow_x.o(i.____hardfp_pow$lsc) refers to dmul.o(x$fpl$dmul) for __aeabi_dmul
    pow_x.o(i.____hardfp_pow$lsc) refers to daddsub_clz.o(x$fpl$dsub) for __aeabi_dsub
    pow_x.o(i.____hardfp_pow$lsc) refers to daddsub_clz.o(x$fpl$drsb) for __aeabi_drsub
    pow_x.o(i.____hardfp_pow$lsc) refers to qnan.o(.constdata) for __mathlib_zero
    pow_x.o(i.____hardfp_pow$lsc) refers to daddsub_clz.o(x$fpl$dadd) for __aeabi_dadd
    pow_x.o(i.____hardfp_pow$lsc) refers to poly.o(i.__kernel_poly) for __kernel_poly
    pow_x.o(i.____hardfp_pow$lsc) refers to pow_x.o(.constdata) for .constdata
    pow_x.o(i.____hardfp_pow$lsc) refers to drleqf.o(x$fpl$drleqf) for __aeabi_cdrcmple
    pow_x.o(i.____hardfp_pow$lsc) refers to scalbn.o(x$fpl$scalbn) for __ARM_scalbn
    pow_x.o(i.____softfp_pow$lsc) refers (Special) to usenofp.o(x$fpl$usenofp) for __I$use$fp
    pow_x.o(i.____softfp_pow$lsc) refers to pow_x.o(i.____hardfp_pow$lsc) for ____hardfp_pow$lsc
    pow_x.o(i.__pow$lsc) refers (Special) to usenofp.o(x$fpl$usenofp) for __I$use$fp
    pow_x.o(i.__pow$lsc) refers to pow_x.o(i.____hardfp_pow$lsc) for ____hardfp_pow$lsc
    pow_x.o(.constdata) refers (Special) to usenofp.o(x$fpl$usenofp) for __I$use$fp
    __rtentry.o(.ARM.Collect$$rtentry$$00000000) refers (Special) to __rtentry2.o(.ARM.Collect$$rtentry$$0000000A) for __rt_entry_li
    __rtentry.o(.ARM.Collect$$rtentry$$00000000) refers (Special) to __rtentry2.o(.ARM.Collect$$rtentry$$0000000D) for __rt_entry_main
    __rtentry.o(.ARM.Collect$$rtentry$$00000000) refers (Special) to __rtentry2.o(.ARM.Collect$$rtentry$$0000000C) for __rt_entry_postli_1
    __rtentry.o(.ARM.Collect$$rtentry$$00000000) refers (Special) to __rtentry2.o(.ARM.Collect$$rtentry$$00000009) for __rt_entry_postsh_1
    __rtentry.o(.ARM.Collect$$rtentry$$00000000) refers (Special) to __rtentry2.o(.ARM.Collect$$rtentry$$00000002) for __rt_entry_presh_1
    __rtentry.o(.ARM.Collect$$rtentry$$00000000) refers (Special) to __rtentry4.o(.ARM.Collect$$rtentry$$00000004) for __rt_entry_sh
    rt_ctype_table.o(.text) refers to rt_locale_intlibspace.o(.text) for __rt_locale
    rt_ctype_table.o(.text) refers to lc_ctype_c.o(locale$$code) for _get_lc_ctype
    rt_heap_descriptor.o(.text) refers to rt_heap_descriptor.o(.bss) for __rt_heap_descriptor_data
    rt_heap_descriptor_intlibspace.o(.text) refers to libspace.o(.bss) for __libspace_start
    init_alloc.o(.text) refers (Special) to hguard.o(.text) for __heap$guard
    init_alloc.o(.text) refers (Special) to libinit2.o(.ARM.Collect$$libinit$$00000005) for __rt_lib_init_heap_2
    init_alloc.o(.text) refers (Special) to maybetermalloc1.o(.emb_text) for _maybe_terminate_alloc
    init_alloc.o(.text) refers to h1_extend.o(.text) for __Heap_ProvideMemory
    init_alloc.o(.text) refers to defsig_rtmem_outer.o(.text) for __rt_SIGRTMEM
    init_alloc.o(.text) refers to rt_heap_descriptor_intlibspace.o(.text) for __rt_heap_descriptor
    init_alloc.o(.text) refers to h1_init.o(.text) for __Heap_Initialize
    h1_init_mt.o(.text) refers to mutex_dummy.o(.text) for _mutex_initialize
    _rserrno.o(.text) refers to rt_errno_addr_intlibspace.o(.text) for __aeabi_errno_addr
    _printf_intcommon.o(.text) refers (Weak) to _printf_pad.o(.text) for _printf_pre_padding
    _printf_intcommon.o(.text) refers (Weak) to _printf_pad.o(.text) for _printf_pre_padding
    _printf_intcommon.o(.text) refers (Weak) to _printf_pad.o(.text) for _printf_post_padding
    _printf_fp_dec.o(.text) refers (Special) to usenofp.o(x$fpl$usenofp) for __I$use$fp
    _printf_fp_dec.o(.text) refers (Special) to lc_numeric_c.o(locale$$code) for _get_lc_numeric
    _printf_fp_dec.o(.text) refers to bigflt0.o(.text) for _btod_etento
    _printf_fp_dec.o(.text) refers to btod.o(CL$$btod_d2e) for _btod_d2e
    _printf_fp_dec.o(.text) refers to btod.o(CL$$btod_ediv) for _btod_ediv
    _printf_fp_dec.o(.text) refers to btod.o(CL$$btod_emul) for _btod_emul
    _printf_fp_dec.o(.text) refers to lludiv10.o(.text) for _ll_udiv10
    _printf_fp_dec.o(.text) refers to fpclassify.o(i.__ARM_fpclassify) for __ARM_fpclassify
    _printf_fp_dec.o(.text) refers to _printf_fp_infnan.o(.text) for _printf_fp_infnan
    _printf_fp_dec.o(.text) refers (Weak) to _printf_pad.o(.text) for _printf_pre_padding
    _printf_fp_dec.o(.text) refers (Weak) to _printf_pad.o(.text) for _printf_pre_padding
    _printf_fp_dec.o(.text) refers to rt_locale_intlibspace.o(.text) for __rt_locale
    _printf_fp_dec.o(.text) refers (Weak) to _printf_pad.o(.text) for _printf_post_padding
    _printf_char_common.o(.text) refers to __printf_flags_ss_wp.o(.text) for __printf
    _printf_char.o(.text) refers (Weak) to _printf_str.o(.text) for _printf_str
    _printf_wctomb.o(.text) refers (Special) to _printf_wchar.o(.text) for _printf_lcs_common
    _printf_wctomb.o(.text) refers to _wcrtomb.o(.text) for _wcrtomb
    _printf_wctomb.o(.text) refers (Weak) to _printf_pad.o(.text) for _printf_pre_padding
    _printf_wctomb.o(.text) refers (Weak) to _printf_pad.o(.text) for _printf_post_padding
    _printf_wctomb.o(.text) refers to _printf_wctomb.o(.constdata) for .constdata
    _printf_wctomb.o(.constdata) refers (Special) to _printf_wchar.o(.text) for _printf_lcs_common
    _printf_longlong_dec.o(.text) refers to lludiv10.o(.text) for _ll_udiv10
    _printf_longlong_dec.o(.text) refers to _printf_intcommon.o(.text) for _printf_int_common
    _printf_oct_ll.o(.text) refers to _printf_intcommon.o(.text) for _printf_int_common
    _printf_oct_int.o(.text) refers (Weak) to _printf_truncate.o(.text) for _printf_truncate_unsigned
    _printf_oct_int.o(.text) refers to _printf_intcommon.o(.text) for _printf_int_common
    _printf_oct_int_ll.o(.text) refers to _printf_intcommon.o(.text) for _printf_int_common
    _printf_oct_int_ll.o(.text) refers (Weak) to _printf_truncate.o(.text) for _printf_truncate_unsigned
    _printf_c.o(.ARM.Collect$$_printf_percent$$00000013) refers (Weak) to _printf_char.o(.text) for _printf_char
    _printf_n.o(.ARM.Collect$$_printf_percent$$00000001) refers (Weak) to _printf_charcount.o(.text) for _printf_charcount
    _printf_p.o(.ARM.Collect$$_printf_percent$$00000002) refers (Weak) to _printf_hex_int_ll_ptr.o(.text) for _printf_hex_ptr
    _printf_o.o(.ARM.Collect$$_printf_percent$$0000000B) refers (Weak) to _printf_oct_int_ll.o(.text) for _printf_int_oct
    _printf_i.o(.ARM.Collect$$_printf_percent$$00000008) refers (Weak) to _printf_dec.o(.text) for _printf_int_dec
    _printf_u.o(.ARM.Collect$$_printf_percent$$0000000A) refers (Weak) to _printf_dec.o(.text) for _printf_int_dec
    _printf_g.o(.ARM.Collect$$_printf_percent$$00000005) refers (Weak) to printf1.o(x$fpl$printf1) for _printf_fp_dec
    _printf_a.o(.ARM.Collect$$_printf_percent$$00000006) refers (Weak) to printf2.o(x$fpl$printf2) for _printf_fp_hex
    _printf_lli.o(.ARM.Collect$$_printf_percent$$0000000D) refers (Special) to _printf_ll.o(.ARM.Collect$$_printf_percent$$00000007) for _printf_ll
    _printf_lli.o(.ARM.Collect$$_printf_percent$$0000000D) refers (Weak) to _printf_longlong_dec.o(.text) for _printf_longlong_dec
    _printf_lld.o(.ARM.Collect$$_printf_percent$$0000000E) refers (Special) to _printf_ll.o(.ARM.Collect$$_printf_percent$$00000007) for _printf_ll
    _printf_lld.o(.ARM.Collect$$_printf_percent$$0000000E) refers (Weak) to _printf_longlong_dec.o(.text) for _printf_longlong_dec
    _printf_llu.o(.ARM.Collect$$_printf_percent$$0000000F) refers (Special) to _printf_ll.o(.ARM.Collect$$_printf_percent$$00000007) for _printf_ll
    _printf_llu.o(.ARM.Collect$$_printf_percent$$0000000F) refers (Weak) to _printf_longlong_dec.o(.text) for _printf_longlong_dec
    _printf_lc.o(.ARM.Collect$$_printf_percent$$00000015) refers (Special) to _printf_l.o(.ARM.Collect$$_printf_percent$$00000012) for _printf_l
    _printf_lc.o(.ARM.Collect$$_printf_percent$$00000015) refers (Weak) to _printf_wchar.o(.text) for _printf_wchar
    _printf_ls.o(.ARM.Collect$$_printf_percent$$00000016) refers (Special) to _printf_l.o(.ARM.Collect$$_printf_percent$$00000012) for _printf_l
    _printf_ls.o(.ARM.Collect$$_printf_percent$$00000016) refers (Weak) to _printf_wchar.o(.text) for _printf_wstring
    _printf_llo.o(.ARM.Collect$$_printf_percent$$00000010) refers (Special) to _printf_ll.o(.ARM.Collect$$_printf_percent$$00000007) for _printf_ll
    _printf_llo.o(.ARM.Collect$$_printf_percent$$00000010) refers (Weak) to _printf_oct_int_ll.o(.text) for _printf_ll_oct
    _printf_llx.o(.ARM.Collect$$_printf_percent$$00000011) refers (Special) to _printf_ll.o(.ARM.Collect$$_printf_percent$$00000007) for _printf_ll
    _printf_llx.o(.ARM.Collect$$_printf_percent$$00000011) refers (Weak) to _printf_hex_int_ll_ptr.o(.text) for _printf_ll_hex
    _get_argv.o(.text) refers (Special) to hrguard.o(.text) for __heap_region$guard
    _get_argv.o(.text) refers to h1_alloc.o(.text) for malloc
    _get_argv.o(.text) refers to defsig_rtmem_outer.o(.text) for __rt_SIGRTMEM
    _get_argv.o(.text) refers to sys_command.o(.text) for _sys_command_string
    libinit2.o(.ARM.Collect$$libinit$$00000001) refers to fpinit.o(x$fpl$fpinit) for _fp_init
    libinit2.o(.ARM.Collect$$libinit$$00000005) refers (Weak) to init_alloc.o(.text) for _init_alloc
    libinit2.o(.ARM.Collect$$libinit$$0000000F) refers (Weak) to rt_locale_intlibspace.o(.text) for __rt_locale
    libinit2.o(.ARM.Collect$$libinit$$00000010) refers to libinit2.o(.ARM.Collect$$libinit$$0000000F) for .ARM.Collect$$libinit$$0000000F
    libinit2.o(.ARM.Collect$$libinit$$00000012) refers to libinit2.o(.ARM.Collect$$libinit$$0000000F) for .ARM.Collect$$libinit$$0000000F
    libinit2.o(.ARM.Collect$$libinit$$00000012) refers (Weak) to lc_ctype_c.o(locale$$code) for _get_lc_ctype
    libinit2.o(.ARM.Collect$$libinit$$00000014) refers to libinit2.o(.ARM.Collect$$libinit$$0000000F) for .ARM.Collect$$libinit$$0000000F
    libinit2.o(.ARM.Collect$$libinit$$00000016) refers to libinit2.o(.ARM.Collect$$libinit$$0000000F) for .ARM.Collect$$libinit$$0000000F
    libinit2.o(.ARM.Collect$$libinit$$00000016) refers (Weak) to lc_numeric_c.o(locale$$code) for _get_lc_numeric
    libinit2.o(.ARM.Collect$$libinit$$00000018) refers to libinit2.o(.ARM.Collect$$libinit$$0000000F) for .ARM.Collect$$libinit$$0000000F
    libinit2.o(.ARM.Collect$$libinit$$00000026) refers to argv_veneer.o(.emb_text) for __ARM_argv_veneer
    libinit2.o(.ARM.Collect$$libinit$$00000027) refers to argv_veneer.o(.emb_text) for __ARM_argv_veneer
    basic.o(x$fpl$basic) refers (Special) to usenofp.o(x$fpl$usenofp) for __I$use$fp
    dcmpi.o(x$fpl$dcmpinf) refers (Special) to usenofp.o(x$fpl$usenofp) for __I$use$fp
    ddiv.o(x$fpl$drdiv) refers (Special) to usenofp.o(x$fpl$usenofp) for __I$use$fp
    ddiv.o(x$fpl$drdiv) refers to ddiv.o(x$fpl$ddiv) for ddiv_entry
    ddiv.o(x$fpl$ddiv) refers (Special) to usenofp.o(x$fpl$usenofp) for __I$use$fp
    ddiv.o(x$fpl$ddiv) refers to dretinf.o(x$fpl$dretinf) for __fpl_dretinf
    ddiv.o(x$fpl$ddiv) refers to dnaninf.o(x$fpl$dnaninf) for __fpl_dnaninf
    dnaninf.o(x$fpl$dnaninf) refers (Special) to usenofp.o(x$fpl$usenofp) for __I$use$fp
    dretinf.o(x$fpl$dretinf) refers (Special) to usenofp.o(x$fpl$usenofp) for __I$use$fp
    fnaninf.o(x$fpl$fnaninf) refers (Special) to usenofp.o(x$fpl$usenofp) for __I$use$fp
    printf2.o(x$fpl$printf2) refers to _printf_fp_hex.o(.text) for _printf_fp_hex_real
    printf2b.o(x$fpl$printf2) refers to _printf_fp_hex.o(.text) for _printf_fp_hex_real
    scalbn.o(x$fpl$scalbn) refers (Special) to usenofp.o(x$fpl$usenofp) for __I$use$fp
    scalbn.o(x$fpl$scalbn) refers to dcheck1.o(x$fpl$dcheck1) for __fpl_dcheck_NaN1
    dunder.o(i.__mathlib_dbl_divzero) refers to ddiv.o(x$fpl$ddiv) for __aeabi_ddiv
    dunder.o(i.__mathlib_dbl_infnan) refers to daddsub_clz.o(x$fpl$dadd) for __aeabi_dadd
    dunder.o(i.__mathlib_dbl_infnan2) refers to daddsub_clz.o(x$fpl$dadd) for __aeabi_dadd
    dunder.o(i.__mathlib_dbl_invalid) refers to ddiv.o(x$fpl$ddiv) for __aeabi_ddiv
    dunder.o(i.__mathlib_dbl_overflow) refers to dmul.o(x$fpl$dmul) for __aeabi_dmul
    dunder.o(i.__mathlib_dbl_posinfnan) refers to dmul.o(x$fpl$dmul) for __aeabi_dmul
    dunder.o(i.__mathlib_dbl_underflow) refers to dmul.o(x$fpl$dmul) for __aeabi_dmul
    fpclassify.o(i.__ARM_fpclassify) refers (Special) to usenofp.o(x$fpl$usenofp) for __I$use$fp
    poly.o(i.__kernel_poly) refers (Special) to usenofp.o(x$fpl$usenofp) for __I$use$fp
    poly.o(i.__kernel_poly) refers to dmul.o(x$fpl$dmul) for __aeabi_dmul
    poly.o(i.__kernel_poly) refers to daddsub_clz.o(x$fpl$dadd) for __aeabi_dadd
    qnan.o(.constdata) refers (Special) to usenofp.o(x$fpl$usenofp) for __I$use$fp
    sqrt.o(i.__hardfp_sqrt) refers (Special) to usenofp.o(x$fpl$usenofp) for __I$use$fp
    sqrt.o(i.__hardfp_sqrt) refers to dsqrt_umaal.o(x$fpl$dsqrt) for _dsqrt
    sqrt.o(i.__hardfp_sqrt) refers to _rserrno.o(.text) for __set_errno
    sqrt.o(i.__softfp_sqrt) refers (Special) to usenofp.o(x$fpl$usenofp) for __I$use$fp
    sqrt.o(i.__softfp_sqrt) refers to dsqrt_umaal.o(x$fpl$dsqrt) for _dsqrt
    sqrt.o(i.__softfp_sqrt) refers to _rserrno.o(.text) for __set_errno
    sqrt.o(i.sqrt) refers (Special) to usenofp.o(x$fpl$usenofp) for __I$use$fp
    sqrt.o(i.sqrt) refers to dsqrt_umaal.o(x$fpl$dsqrt) for _dsqrt
    sqrt.o(i.sqrt) refers to _rserrno.o(.text) for __set_errno
    sqrt_x.o(i.____hardfp_sqrt$lsc) refers (Special) to usenofp.o(x$fpl$usenofp) for __I$use$fp
    sqrt_x.o(i.____hardfp_sqrt$lsc) refers to dleqf.o(x$fpl$dleqf) for __aeabi_cdcmple
    sqrt_x.o(i.____hardfp_sqrt$lsc) refers to _rserrno.o(.text) for __set_errno
    sqrt_x.o(i.____hardfp_sqrt$lsc) refers to dsqrt_umaal.o(x$fpl$dsqrt) for _dsqrt
    sqrt_x.o(i.____softfp_sqrt$lsc) refers (Special) to usenofp.o(x$fpl$usenofp) for __I$use$fp
    sqrt_x.o(i.____softfp_sqrt$lsc) refers to dleqf.o(x$fpl$dleqf) for __aeabi_cdcmple
    sqrt_x.o(i.____softfp_sqrt$lsc) refers to _rserrno.o(.text) for __set_errno
    sqrt_x.o(i.____softfp_sqrt$lsc) refers to dsqrt_umaal.o(x$fpl$dsqrt) for _dsqrt
    sqrt_x.o(i.__sqrt$lsc) refers (Special) to usenofp.o(x$fpl$usenofp) for __I$use$fp
    sqrt_x.o(i.__sqrt$lsc) refers to dleqf.o(x$fpl$dleqf) for __aeabi_cdcmple
    sqrt_x.o(i.__sqrt$lsc) refers to _rserrno.o(.text) for __set_errno
    sqrt_x.o(i.__sqrt$lsc) refers to dsqrt_umaal.o(x$fpl$dsqrt) for _dsqrt
    sys_command.o(.text) refers (Special) to use_no_semi.o(.text) for __I$use$semihosting
    sys_command.o(.text) refers (Special) to indicate_semi.o(.text) for __semihosting_library_function
    libspace.o(.text) refers to libspace.o(.bss) for __libspace_start
    __rtentry2.o(.ARM.Collect$$rtentry$$00000008) refers to boardinit2.o(.text) for _platform_post_stackheap_init
    __rtentry2.o(.ARM.Collect$$rtentry$$0000000A) refers to libinit.o(.ARM.Collect$$libinit$$00000000) for __rt_lib_init
    __rtentry2.o(.ARM.Collect$$rtentry$$0000000B) refers to boardinit3.o(.text) for _platform_post_lib_init
    __rtentry2.o(.ARM.Collect$$rtentry$$0000000D) refers to main.o(i.main) for main
    __rtentry2.o(.ARM.Collect$$rtentry$$0000000D) refers to exit.o(.text) for exit
    __rtentry2.o(.ARM.exidx) refers to __rtentry2.o(.ARM.Collect$$rtentry$$00000001) for .ARM.Collect$$rtentry$$00000001
    __rtentry2.o(.ARM.exidx) refers to __rtentry2.o(.ARM.Collect$$rtentry$$00000008) for .ARM.Collect$$rtentry$$00000008
    __rtentry2.o(.ARM.exidx) refers to __rtentry2.o(.ARM.Collect$$rtentry$$0000000A) for .ARM.Collect$$rtentry$$0000000A
    __rtentry2.o(.ARM.exidx) refers to __rtentry2.o(.ARM.Collect$$rtentry$$0000000B) for .ARM.Collect$$rtentry$$0000000B
    __rtentry2.o(.ARM.exidx) refers to __rtentry2.o(.ARM.Collect$$rtentry$$0000000D) for .ARM.Collect$$rtentry$$0000000D
    __rtentry4.o(.ARM.Collect$$rtentry$$00000004) refers to sys_stackheap_outer.o(.text) for __user_setup_stackheap
    __rtentry4.o(.ARM.exidx) refers to __rtentry4.o(.ARM.Collect$$rtentry$$00000004) for .ARM.Collect$$rtentry$$00000004
    rt_locale.o(.text) refers to rt_locale.o(.bss) for __rt_locale_data
    rt_locale_intlibspace.o(.text) refers to libspace.o(.bss) for __libspace_start
    rt_errno_addr.o(.text) refers to rt_errno_addr.o(.bss) for __aeabi_errno_addr_data
    rt_errno_addr_intlibspace.o(.text) refers to libspace.o(.bss) for __libspace_start
    maybetermalloc2.o(.emb_text) refers (Special) to term_alloc.o(.text) for _terminate_alloc
    h1_extend.o(.text) refers to h1_free.o(.text) for free
    h1_extend_mt.o(.text) refers to h1_free_mt.o(.text) for _free_internal
    _printf_fp_hex.o(.text) refers (Special) to usenofp.o(x$fpl$usenofp) for __I$use$fp
    _printf_fp_hex.o(.text) refers to fpclassify.o(i.__ARM_fpclassify) for __ARM_fpclassify
    _printf_fp_hex.o(.text) refers to _printf_fp_infnan.o(.text) for _printf_fp_infnan
    _printf_fp_hex.o(.text) refers (Weak) to _printf_pad.o(.text) for _printf_pre_padding
    _printf_fp_hex.o(.text) refers (Weak) to _printf_pad.o(.text) for _printf_pre_padding
    _printf_fp_hex.o(.text) refers (Weak) to _printf_pad.o(.text) for _printf_post_padding
    _printf_fp_hex.o(.text) refers to _printf_fp_hex.o(.constdata) for .constdata
    _printf_fp_hex.o(.constdata) refers (Special) to usenofp.o(x$fpl$usenofp) for __I$use$fp
    _printf_fp_infnan.o(.text) refers (Weak) to _printf_pad.o(.text) for _printf_pre_padding
    _printf_fp_infnan.o(.text) refers (Weak) to _printf_pad.o(.text) for _printf_post_padding
    _printf_wchar.o(.text) refers (Weak) to _printf_wctomb.o(.text) for _printf_wctomb
    bigflt0.o(.text) refers (Special) to usenofp.o(x$fpl$usenofp) for __I$use$fp
    bigflt0.o(.text) refers to btod.o(CL$$btod_emul) for _btod_emul
    bigflt0.o(.text) refers to btod.o(CL$$btod_ediv) for _btod_ediv
    bigflt0.o(.text) refers to bigflt0.o(.constdata) for .constdata
    bigflt0.o(.constdata) refers (Special) to usenofp.o(x$fpl$usenofp) for __I$use$fp
    btod.o(CL$$btod_d2e) refers (Special) to usenofp.o(x$fpl$usenofp) for __I$use$fp
    btod.o(CL$$btod_d2e) refers to btod.o(CL$$btod_d2e_norm_op1) for _d2e_norm_op1
    btod.o(CL$$btod_d2e_norm_op1) refers (Special) to usenofp.o(x$fpl$usenofp) for __I$use$fp
    btod.o(CL$$btod_d2e_norm_op1) refers to btod.o(CL$$btod_d2e_denorm_low) for _d2e_denorm_low
    btod.o(CL$$btod_d2e_denorm_low) refers (Special) to usenofp.o(x$fpl$usenofp) for __I$use$fp
    btod.o(CL$$btod_emul) refers (Special) to usenofp.o(x$fpl$usenofp) for __I$use$fp
    btod.o(CL$$btod_emul) refers to btod.o(CL$$btod_mult_common) for __btod_mult_common
    btod.o(CL$$btod_emul) refers to btod.o(CL$$btod_e2e) for _e2e
    btod.o(CL$$btod_ediv) refers (Special) to usenofp.o(x$fpl$usenofp) for __I$use$fp
    btod.o(CL$$btod_ediv) refers to btod.o(CL$$btod_div_common) for __btod_div_common
    btod.o(CL$$btod_ediv) refers to btod.o(CL$$btod_e2e) for _e2e
    btod.o(CL$$btod_emuld) refers (Special) to usenofp.o(x$fpl$usenofp) for __I$use$fp
    btod.o(CL$$btod_emuld) refers to btod.o(CL$$btod_mult_common) for __btod_mult_common
    btod.o(CL$$btod_emuld) refers to btod.o(CL$$btod_e2d) for _e2d
    btod.o(CL$$btod_edivd) refers (Special) to usenofp.o(x$fpl$usenofp) for __I$use$fp
    btod.o(CL$$btod_edivd) refers to btod.o(CL$$btod_div_common) for __btod_div_common
    btod.o(CL$$btod_edivd) refers to btod.o(CL$$btod_e2d) for _e2d
    btod.o(CL$$btod_e2e) refers (Special) to usenofp.o(x$fpl$usenofp) for __I$use$fp
    btod.o(CL$$btod_e2d) refers (Special) to usenofp.o(x$fpl$usenofp) for __I$use$fp
    btod.o(CL$$btod_e2d) refers to btod.o(CL$$btod_e2e) for _e2e
    btod.o(CL$$btod_mult_common) refers (Special) to usenofp.o(x$fpl$usenofp) for __I$use$fp
    btod.o(CL$$btod_div_common) refers (Special) to usenofp.o(x$fpl$usenofp) for __I$use$fp
    _wcrtomb.o(.text) refers to rt_ctype_table.o(.text) for __rt_ctype_table
    lc_ctype_c.o(locale$$data) refers (Special) to libinit2.o(.ARM.Collect$$libinit$$00000012) for __rt_lib_init_lc_ctype_2
    lc_ctype_c.o(locale$$code) refers (Special) to libinit2.o(.ARM.Collect$$libinit$$00000012) for __rt_lib_init_lc_ctype_2
    lc_ctype_c.o(locale$$code) refers to strcmpv7m.o(.text) for strcmp
    lc_ctype_c.o(locale$$code) refers to lc_ctype_c.o(locale$$data) for __lcctype_c_name
    lc_numeric_c.o(locale$$data) refers (Special) to libinit2.o(.ARM.Collect$$libinit$$00000016) for __rt_lib_init_lc_numeric_2
    lc_numeric_c.o(locale$$code) refers (Special) to libinit2.o(.ARM.Collect$$libinit$$00000016) for __rt_lib_init_lc_numeric_2
    lc_numeric_c.o(locale$$code) refers to strcmpv7m.o(.text) for strcmp
    lc_numeric_c.o(locale$$code) refers to lc_numeric_c.o(locale$$data) for __lcnum_c_name
    defsig_rtmem_outer.o(.text) refers to defsig_rtmem_inner.o(.text) for __rt_SIGRTMEM_inner
    defsig_rtmem_outer.o(.text) refers to defsig_exit.o(.text) for __sig_exit
    defsig_rtmem_formal.o(.text) refers to rt_raise.o(.text) for __rt_raise
    heapauxa.o(.text) refers to heapauxa.o(.data) for .data
    argv_veneer.o(.emb_text) refers to no_argv.o(.text) for __ARM_get_argv
    dcheck1.o(x$fpl$dcheck1) refers (Special) to usenofp.o(x$fpl$usenofp) for __I$use$fp
    dcheck1.o(x$fpl$dcheck1) refers to retnan.o(x$fpl$retnan) for __fpl_return_NaN
    dsqrt_umaal.o(x$fpl$dsqrt) refers (Special) to usenofp.o(x$fpl$usenofp) for __I$use$fp
    dsqrt_umaal.o(x$fpl$dsqrt) refers to dnaninf.o(x$fpl$dnaninf) for __fpl_dnaninf
    istatus.o(x$fpl$ieeestatus) refers (Special) to usenofp.o(x$fpl$usenofp) for __I$use$fp
    sys_stackheap_outer.o(.text) refers to libspace.o(.text) for __user_perproc_libspace
    sys_stackheap_outer.o(.text) refers to startup_stm32f40_41xxx.o(.text) for __user_initial_stackheap
    rt_raise.o(.text) refers to __raise.o(.text) for __raise
    rt_raise.o(.text) refers to sys_exit.o(.text) for _sys_exit
    term_alloc.o(.text) refers (Special) to libshutdown2.o(.ARM.Collect$$libshutdown$$00000010) for __rt_lib_shutdown_heap_2
    term_alloc.o(.text) refers to rt_heap_descriptor_intlibspace.o(.text) for __rt_heap_descriptor
    term_alloc.o(.text) refers to h1_final.o(.text) for __Heap_Finalize
    exit.o(.text) refers to rtexit.o(.ARM.Collect$$rtexit$$00000000) for __rt_exit
    defsig_exit.o(.text) refers to sys_exit.o(.text) for _sys_exit
    defsig_rtmem_inner.o(.text) refers to defsig_general.o(.text) for __default_signal_display
    _get_argv_nomalloc.o(.text) refers (Special) to hrguard.o(.text) for __heap_region$guard
    _get_argv_nomalloc.o(.text) refers to defsig_rtmem_outer.o(.text) for __rt_SIGRTMEM
    _get_argv_nomalloc.o(.text) refers to sys_command.o(.text) for _sys_command_string
    libinit.o(.ARM.Collect$$libinit$$00000000) refers (Special) to libinit2.o(.ARM.Collect$$libinit$$0000002E) for __rt_lib_init_alloca_1
    libinit.o(.ARM.Collect$$libinit$$00000000) refers (Special) to libinit2.o(.ARM.Collect$$libinit$$0000002C) for __rt_lib_init_argv_1
    libinit.o(.ARM.Collect$$libinit$$00000000) refers (Special) to libinit2.o(.ARM.Collect$$libinit$$0000001B) for __rt_lib_init_atexit_1
    libinit.o(.ARM.Collect$$libinit$$00000000) refers (Special) to libinit2.o(.ARM.Collect$$libinit$$00000021) for __rt_lib_init_clock_1
    libinit.o(.ARM.Collect$$libinit$$00000000) refers (Special) to libinit2.o(.ARM.Collect$$libinit$$00000032) for __rt_lib_init_cpp_1
    libinit.o(.ARM.Collect$$libinit$$00000000) refers (Special) to libinit2.o(.ARM.Collect$$libinit$$00000030) for __rt_lib_init_exceptions_1
    libinit.o(.ARM.Collect$$libinit$$00000000) refers (Special) to libinit2.o(.ARM.Collect$$libinit$$00000001) for __rt_lib_init_fp_1
    libinit.o(.ARM.Collect$$libinit$$00000000) refers (Special) to libinit2.o(.ARM.Collect$$libinit$$0000001F) for __rt_lib_init_fp_trap_1
    libinit.o(.ARM.Collect$$libinit$$00000000) refers (Special) to libinit2.o(.ARM.Collect$$libinit$$00000023) for __rt_lib_init_getenv_1
    libinit.o(.ARM.Collect$$libinit$$00000000) refers (Special) to libinit2.o(.ARM.Collect$$libinit$$0000000A) for __rt_lib_init_heap_1
    libinit.o(.ARM.Collect$$libinit$$00000000) refers (Special) to libinit2.o(.ARM.Collect$$libinit$$00000011) for __rt_lib_init_lc_collate_1
    libinit.o(.ARM.Collect$$libinit$$00000000) refers (Special) to libinit2.o(.ARM.Collect$$libinit$$00000013) for __rt_lib_init_lc_ctype_1
    libinit.o(.ARM.Collect$$libinit$$00000000) refers (Special) to libinit2.o(.ARM.Collect$$libinit$$00000015) for __rt_lib_init_lc_monetary_1
    libinit.o(.ARM.Collect$$libinit$$00000000) refers (Special) to libinit2.o(.ARM.Collect$$libinit$$00000017) for __rt_lib_init_lc_numeric_1
    libinit.o(.ARM.Collect$$libinit$$00000000) refers (Special) to libinit2.o(.ARM.Collect$$libinit$$00000019) for __rt_lib_init_lc_time_1
    libinit.o(.ARM.Collect$$libinit$$00000000) refers (Special) to libinit2.o(.ARM.Collect$$libinit$$00000004) for __rt_lib_init_preinit_1
    libinit.o(.ARM.Collect$$libinit$$00000000) refers (Special) to libinit2.o(.ARM.Collect$$libinit$$0000000E) for __rt_lib_init_rand_1
    libinit.o(.ARM.Collect$$libinit$$00000000) refers (Special) to libinit2.o(.ARM.Collect$$libinit$$00000033) for __rt_lib_init_return
    libinit.o(.ARM.Collect$$libinit$$00000000) refers (Special) to libinit2.o(.ARM.Collect$$libinit$$0000001D) for __rt_lib_init_signal_1
    libinit.o(.ARM.Collect$$libinit$$00000000) refers (Special) to libinit2.o(.ARM.Collect$$libinit$$00000025) for __rt_lib_init_stdio_1
    libinit.o(.ARM.Collect$$libinit$$00000000) refers (Special) to libinit2.o(.ARM.Collect$$libinit$$0000000C) for __rt_lib_init_user_alloc_1
    retnan.o(x$fpl$retnan) refers (Special) to usenofp.o(x$fpl$usenofp) for __I$use$fp
    retnan.o(x$fpl$retnan) refers to trapv.o(x$fpl$trapveneer) for __fpl_cmpreturn
    sys_exit.o(.text) refers (Special) to use_no_semi.o(.text) for __I$use$semihosting
    sys_exit.o(.text) refers (Special) to indicate_semi.o(.text) for __semihosting_library_function
    rtexit.o(.ARM.Collect$$rtexit$$00000000) refers (Special) to rtexit2.o(.ARM.Collect$$rtexit$$00000004) for __rt_exit_exit
    rtexit.o(.ARM.Collect$$rtexit$$00000000) refers (Special) to rtexit2.o(.ARM.Collect$$rtexit$$00000003) for __rt_exit_ls
    rtexit.o(.ARM.Collect$$rtexit$$00000000) refers (Special) to rtexit2.o(.ARM.Collect$$rtexit$$00000002) for __rt_exit_prels_1
    rtexit.o(.ARM.exidx) refers (Special) to rtexit2.o(.ARM.Collect$$rtexit$$00000004) for __rt_exit_exit
    rtexit.o(.ARM.exidx) refers (Special) to rtexit2.o(.ARM.Collect$$rtexit$$00000003) for __rt_exit_ls
    rtexit.o(.ARM.exidx) refers (Special) to rtexit2.o(.ARM.Collect$$rtexit$$00000002) for __rt_exit_prels_1
    rtexit.o(.ARM.exidx) refers to rtexit.o(.ARM.Collect$$rtexit$$00000000) for .ARM.Collect$$rtexit$$00000000
    __raise.o(.text) refers to defsig.o(CL$$defsig) for __default_signal_handler
    defsig_general.o(.text) refers to sys_wrch.o(.text) for _ttywrch
    libshutdown2.o(.ARM.Collect$$libshutdown$$0000000F) refers (Weak) to term_alloc.o(.text) for _terminate_alloc
    trapv.o(x$fpl$trapveneer) refers (Special) to usenofp.o(x$fpl$usenofp) for __I$use$fp
    sys_wrch.o(.text) refers (Special) to use_no_semi.o(.text) for __I$use$semihosting
    sys_wrch.o(.text) refers (Special) to indicate_semi.o(.text) for __semihosting_library_function
    rtexit2.o(.ARM.Collect$$rtexit$$00000003) refers to libshutdown.o(.ARM.Collect$$libshutdown$$00000000) for __rt_lib_shutdown
    rtexit2.o(.ARM.Collect$$rtexit$$00000004) refers to sys_exit.o(.text) for _sys_exit
    rtexit2.o(.ARM.exidx) refers to rtexit2.o(.ARM.Collect$$rtexit$$00000001) for .ARM.Collect$$rtexit$$00000001
    rtexit2.o(.ARM.exidx) refers to rtexit2.o(.ARM.Collect$$rtexit$$00000003) for .ARM.Collect$$rtexit$$00000003
    rtexit2.o(.ARM.exidx) refers to rtexit2.o(.ARM.Collect$$rtexit$$00000004) for .ARM.Collect$$rtexit$$00000004
    defsig.o(CL$$defsig) refers to defsig_rtmem_inner.o(.text) for __rt_SIGRTMEM_inner
    defsig_abrt_inner.o(.text) refers to defsig_general.o(.text) for __default_signal_display
    defsig_fpe_inner.o(.text) refers to defsig_general.o(.text) for __default_signal_display
    defsig_rtred_inner.o(.text) refers to defsig_general.o(.text) for __default_signal_display
    defsig_stak_inner.o(.text) refers to defsig_general.o(.text) for __default_signal_display
    defsig_pvfn_inner.o(.text) refers to defsig_general.o(.text) for __default_signal_display
    defsig_cppl_inner.o(.text) refers to defsig_general.o(.text) for __default_signal_display
    defsig_segv_inner.o(.text) refers to defsig_general.o(.text) for __default_signal_display
    defsig_other.o(.text) refers to defsig_general.o(.text) for __default_signal_display
    libshutdown.o(.ARM.Collect$$libshutdown$$00000000) refers (Special) to libshutdown2.o(.ARM.Collect$$libshutdown$$00000004) for __rt_lib_shutdown_cpp_1
    libshutdown.o(.ARM.Collect$$libshutdown$$00000000) refers (Special) to libshutdown2.o(.ARM.Collect$$libshutdown$$00000002) for __rt_lib_shutdown_fini_1
    libshutdown.o(.ARM.Collect$$libshutdown$$00000000) refers (Special) to libshutdown2.o(.ARM.Collect$$libshutdown$$00000009) for __rt_lib_shutdown_fp_trap_1
    libshutdown.o(.ARM.Collect$$libshutdown$$00000000) refers (Special) to libshutdown2.o(.ARM.Collect$$libshutdown$$00000011) for __rt_lib_shutdown_heap_1
    libshutdown.o(.ARM.Collect$$libshutdown$$00000000) refers (Special) to libshutdown2.o(.ARM.Collect$$libshutdown$$00000012) for __rt_lib_shutdown_return
    libshutdown.o(.ARM.Collect$$libshutdown$$00000000) refers (Special) to libshutdown2.o(.ARM.Collect$$libshutdown$$0000000C) for __rt_lib_shutdown_signal_1
    libshutdown.o(.ARM.Collect$$libshutdown$$00000000) refers (Special) to libshutdown2.o(.ARM.Collect$$libshutdown$$00000006) for __rt_lib_shutdown_stdio_1
    libshutdown.o(.ARM.Collect$$libshutdown$$00000000) refers (Special) to libshutdown2.o(.ARM.Collect$$libshutdown$$0000000E) for __rt_lib_shutdown_user_alloc_1


==============================================================================

Removing Unused input sections from the image.

    Removing misc.o(.rev16_text), (4 bytes).
    Removing misc.o(.revsh_text), (4 bytes).
    Removing misc.o(i.NVIC_SetVectorTable), (20 bytes).
    Removing misc.o(i.NVIC_SystemLPConfig), (24 bytes).
    Removing misc.o(i.SysTick_CLKSourceConfig), (24 bytes).
    Removing stm32f4xx_adc.o(.rev16_text), (4 bytes).
    Removing stm32f4xx_adc.o(.revsh_text), (4 bytes).
    Removing stm32f4xx_adc.o(i.ADC_AnalogWatchdogCmd), (16 bytes).
    Removing stm32f4xx_adc.o(i.ADC_AnalogWatchdogSingleChannelConfig), (12 bytes).
    Removing stm32f4xx_adc.o(i.ADC_AnalogWatchdogThresholdsConfig), (6 bytes).
    Removing stm32f4xx_adc.o(i.ADC_AutoInjectedConvCmd), (20 bytes).
    Removing stm32f4xx_adc.o(i.ADC_ClearFlag), (6 bytes).
    Removing stm32f4xx_adc.o(i.ADC_ClearITPendingBit), (8 bytes).
    Removing stm32f4xx_adc.o(i.ADC_Cmd), (20 bytes).
    Removing stm32f4xx_adc.o(i.ADC_CommonInit), (44 bytes).
    Removing stm32f4xx_adc.o(i.ADC_CommonStructInit), (12 bytes).
    Removing stm32f4xx_adc.o(i.ADC_ContinuousModeCmd), (20 bytes).
    Removing stm32f4xx_adc.o(i.ADC_DMACmd), (20 bytes).
    Removing stm32f4xx_adc.o(i.ADC_DMARequestAfterLastTransferCmd), (20 bytes).
    Removing stm32f4xx_adc.o(i.ADC_DeInit), (24 bytes).
    Removing stm32f4xx_adc.o(i.ADC_DiscModeChannelCountConfig), (16 bytes).
    Removing stm32f4xx_adc.o(i.ADC_DiscModeCmd), (20 bytes).
    Removing stm32f4xx_adc.o(i.ADC_EOCOnEachRegularChannelCmd), (20 bytes).
    Removing stm32f4xx_adc.o(i.ADC_ExternalTrigInjectedConvConfig), (12 bytes).
    Removing stm32f4xx_adc.o(i.ADC_ExternalTrigInjectedConvEdgeConfig), (12 bytes).
    Removing stm32f4xx_adc.o(i.ADC_GetConversionValue), (6 bytes).
    Removing stm32f4xx_adc.o(i.ADC_GetFlagStatus), (14 bytes).
    Removing stm32f4xx_adc.o(i.ADC_GetITStatus), (30 bytes).
    Removing stm32f4xx_adc.o(i.ADC_GetInjectedConversionValue), (14 bytes).
    Removing stm32f4xx_adc.o(i.ADC_GetMultiModeConversionValue), (12 bytes).
    Removing stm32f4xx_adc.o(i.ADC_GetSoftwareStartConvStatus), (14 bytes).
    Removing stm32f4xx_adc.o(i.ADC_GetSoftwareStartInjectedConvCmdStatus), (14 bytes).
    Removing stm32f4xx_adc.o(i.ADC_ITConfig), (18 bytes).
    Removing stm32f4xx_adc.o(i.ADC_Init), (76 bytes).
    Removing stm32f4xx_adc.o(i.ADC_InjectedChannelConfig), (74 bytes).
    Removing stm32f4xx_adc.o(i.ADC_InjectedDiscModeCmd), (20 bytes).
    Removing stm32f4xx_adc.o(i.ADC_InjectedSequencerLengthConfig), (16 bytes).
    Removing stm32f4xx_adc.o(i.ADC_MultiModeDMARequestAfterLastTransferCmd), (32 bytes).
    Removing stm32f4xx_adc.o(i.ADC_RegularChannelConfig), (116 bytes).
    Removing stm32f4xx_adc.o(i.ADC_SetInjectedOffset), (10 bytes).
    Removing stm32f4xx_adc.o(i.ADC_SoftwareStartConv), (10 bytes).
    Removing stm32f4xx_adc.o(i.ADC_SoftwareStartInjectedConv), (10 bytes).
    Removing stm32f4xx_adc.o(i.ADC_StructInit), (20 bytes).
    Removing stm32f4xx_adc.o(i.ADC_TempSensorVrefintCmd), (32 bytes).
    Removing stm32f4xx_adc.o(i.ADC_VBATCmd), (32 bytes).
    Removing stm32f4xx_dac.o(.rev16_text), (4 bytes).
    Removing stm32f4xx_dac.o(.revsh_text), (4 bytes).
    Removing stm32f4xx_dac.o(i.DAC_ClearFlag), (12 bytes).
    Removing stm32f4xx_dac.o(i.DAC_ClearITPendingBit), (12 bytes).
    Removing stm32f4xx_dac.o(i.DAC_Cmd), (24 bytes).
    Removing stm32f4xx_dac.o(i.DAC_DMACmd), (24 bytes).
    Removing stm32f4xx_dac.o(i.DAC_DeInit), (24 bytes).
    Removing stm32f4xx_dac.o(i.DAC_DualSoftwareTriggerCmd), (28 bytes).
    Removing stm32f4xx_dac.o(i.DAC_GetDataOutputValue), (24 bytes).
    Removing stm32f4xx_dac.o(i.DAC_GetFlagStatus), (24 bytes).
    Removing stm32f4xx_dac.o(i.DAC_GetITStatus), (36 bytes).
    Removing stm32f4xx_dac.o(i.DAC_ITConfig), (24 bytes).
    Removing stm32f4xx_dac.o(i.DAC_Init), (40 bytes).
    Removing stm32f4xx_dac.o(i.DAC_SetChannel1Data), (20 bytes).
    Removing stm32f4xx_dac.o(i.DAC_SetChannel2Data), (20 bytes).
    Removing stm32f4xx_dac.o(i.DAC_SetDualChannelData), (28 bytes).
    Removing stm32f4xx_dac.o(i.DAC_SoftwareTriggerCmd), (28 bytes).
    Removing stm32f4xx_dac.o(i.DAC_StructInit), (12 bytes).
    Removing stm32f4xx_dac.o(i.DAC_WaveGenerationCmd), (24 bytes).
    Removing stm32f4xx_dma.o(.rev16_text), (4 bytes).
    Removing stm32f4xx_dma.o(.revsh_text), (4 bytes).
    Removing stm32f4xx_dma.o(i.DMA_ClearITPendingBit), (44 bytes).
    Removing stm32f4xx_dma.o(i.DMA_DoubleBufferModeCmd), (20 bytes).
    Removing stm32f4xx_dma.o(i.DMA_DoubleBufferModeConfig), (22 bytes).
    Removing stm32f4xx_dma.o(i.DMA_FlowControllerConfig), (20 bytes).
    Removing stm32f4xx_dma.o(i.DMA_GetCmdStatus), (14 bytes).
    Removing stm32f4xx_dma.o(i.DMA_GetCurrentMemoryTarget), (14 bytes).
    Removing stm32f4xx_dma.o(i.DMA_GetFIFOStatus), (8 bytes).
    Removing stm32f4xx_dma.o(i.DMA_GetITStatus), (84 bytes).
    Removing stm32f4xx_dma.o(i.DMA_ITConfig), (44 bytes).
    Removing stm32f4xx_dma.o(i.DMA_MemoryTargetConfig), (10 bytes).
    Removing stm32f4xx_dma.o(i.DMA_PeriphIncOffsetSizeConfig), (20 bytes).
    Removing stm32f4xx_dma.o(i.DMA_StructInit), (34 bytes).
    Removing stm32f4xx_dma2d.o(.rev16_text), (4 bytes).
    Removing stm32f4xx_dma2d.o(.revsh_text), (4 bytes).
    Removing stm32f4xx_dma2d.o(i.DMA2D_AbortTransfer), (16 bytes).
    Removing stm32f4xx_dma2d.o(i.DMA2D_BGConfig), (108 bytes).
    Removing stm32f4xx_dma2d.o(i.DMA2D_BGStart), (28 bytes).
    Removing stm32f4xx_dma2d.o(i.DMA2D_BG_StructInit), (26 bytes).
    Removing stm32f4xx_dma2d.o(i.DMA2D_ClearFlag), (12 bytes).
    Removing stm32f4xx_dma2d.o(i.DMA2D_ClearITPendingBit), (12 bytes).
    Removing stm32f4xx_dma2d.o(i.DMA2D_DeInit), (24 bytes).
    Removing stm32f4xx_dma2d.o(i.DMA2D_DeadTimeConfig), (44 bytes).
    Removing stm32f4xx_dma2d.o(i.DMA2D_FGConfig), (108 bytes).
    Removing stm32f4xx_dma2d.o(i.DMA2D_FGStart), (28 bytes).
    Removing stm32f4xx_dma2d.o(i.DMA2D_FG_StructInit), (26 bytes).
    Removing stm32f4xx_dma2d.o(i.DMA2D_GetFlagStatus), (20 bytes).
    Removing stm32f4xx_dma2d.o(i.DMA2D_GetITStatus), (36 bytes).
    Removing stm32f4xx_dma2d.o(i.DMA2D_ITConfig), (24 bytes).
    Removing stm32f4xx_dma2d.o(i.DMA2D_Init), (180 bytes).
    Removing stm32f4xx_dma2d.o(i.DMA2D_LineWatermarkConfig), (12 bytes).
    Removing stm32f4xx_dma2d.o(i.DMA2D_StartTransfer), (16 bytes).
    Removing stm32f4xx_dma2d.o(i.DMA2D_StructInit), (24 bytes).
    Removing stm32f4xx_dma2d.o(i.DMA2D_Suspend), (28 bytes).
    Removing stm32f4xx_exti.o(.rev16_text), (4 bytes).
    Removing stm32f4xx_exti.o(.revsh_text), (4 bytes).
    Removing stm32f4xx_exti.o(i.EXTI_ClearFlag), (12 bytes).
    Removing stm32f4xx_exti.o(i.EXTI_DeInit), (36 bytes).
    Removing stm32f4xx_exti.o(i.EXTI_GenerateSWInterrupt), (16 bytes).
    Removing stm32f4xx_exti.o(i.EXTI_GetFlagStatus), (20 bytes).
    Removing stm32f4xx_exti.o(i.EXTI_StructInit), (14 bytes).
    Removing stm32f4xx_flash.o(.rev16_text), (4 bytes).
    Removing stm32f4xx_flash.o(.revsh_text), (4 bytes).
    Removing stm32f4xx_flash.o(i.FLASH_ClearFlag), (12 bytes).
    Removing stm32f4xx_flash.o(i.FLASH_DataCacheCmd), (28 bytes).
    Removing stm32f4xx_flash.o(i.FLASH_DataCacheReset), (16 bytes).
    Removing stm32f4xx_flash.o(i.FLASH_EraseAllBank1Sectors), (92 bytes).
    Removing stm32f4xx_flash.o(i.FLASH_EraseAllBank2Sectors), (92 bytes).
    Removing stm32f4xx_flash.o(i.FLASH_EraseAllSectors), (92 bytes).
    Removing stm32f4xx_flash.o(i.FLASH_EraseSector), (108 bytes).
    Removing stm32f4xx_flash.o(i.FLASH_GetFlagStatus), (20 bytes).
    Removing stm32f4xx_flash.o(i.FLASH_GetStatus), (60 bytes).
    Removing stm32f4xx_flash.o(i.FLASH_ITConfig), (24 bytes).
    Removing stm32f4xx_flash.o(i.FLASH_InstructionCacheCmd), (28 bytes).
    Removing stm32f4xx_flash.o(i.FLASH_InstructionCacheReset), (16 bytes).
    Removing stm32f4xx_flash.o(i.FLASH_Lock), (16 bytes).
    Removing stm32f4xx_flash.o(i.FLASH_OB_BORConfig), (24 bytes).
    Removing stm32f4xx_flash.o(i.FLASH_OB_BootConfig), (24 bytes).
    Removing stm32f4xx_flash.o(i.FLASH_OB_GetBOR), (16 bytes).
    Removing stm32f4xx_flash.o(i.FLASH_OB_GetPCROP), (12 bytes).
    Removing stm32f4xx_flash.o(i.FLASH_OB_GetPCROP1), (12 bytes).
    Removing stm32f4xx_flash.o(i.FLASH_OB_GetRDP), (20 bytes).
    Removing stm32f4xx_flash.o(i.FLASH_OB_GetUser), (16 bytes).
    Removing stm32f4xx_flash.o(i.FLASH_OB_GetWRP), (12 bytes).
    Removing stm32f4xx_flash.o(i.FLASH_OB_GetWRP1), (12 bytes).
    Removing stm32f4xx_flash.o(i.FLASH_OB_Launch), (20 bytes).
    Removing stm32f4xx_flash.o(i.FLASH_OB_Lock), (16 bytes).
    Removing stm32f4xx_flash.o(i.FLASH_OB_PCROP1Config), (36 bytes).
    Removing stm32f4xx_flash.o(i.FLASH_OB_PCROPConfig), (36 bytes).
    Removing stm32f4xx_flash.o(i.FLASH_OB_PCROPSelectionConfig), (20 bytes).
    Removing stm32f4xx_flash.o(i.FLASH_OB_RDPConfig), (24 bytes).
    Removing stm32f4xx_flash.o(i.FLASH_OB_Unlock), (36 bytes).
    Removing stm32f4xx_flash.o(i.FLASH_OB_UserConfig), (40 bytes).
    Removing stm32f4xx_flash.o(i.FLASH_OB_WRP1Config), (36 bytes).
    Removing stm32f4xx_flash.o(i.FLASH_OB_WRPConfig), (36 bytes).
    Removing stm32f4xx_flash.o(i.FLASH_PrefetchBufferCmd), (28 bytes).
    Removing stm32f4xx_flash.o(i.FLASH_ProgramByte), (56 bytes).
    Removing stm32f4xx_flash.o(i.FLASH_ProgramDoubleWord), (64 bytes).
    Removing stm32f4xx_flash.o(i.FLASH_ProgramHalfWord), (60 bytes).
    Removing stm32f4xx_flash.o(i.FLASH_ProgramWord), (60 bytes).
    Removing stm32f4xx_flash.o(i.FLASH_SetLatency), (12 bytes).
    Removing stm32f4xx_flash.o(i.FLASH_Unlock), (36 bytes).
    Removing stm32f4xx_flash.o(i.FLASH_WaitForLastOperation), (30 bytes).
    Removing stm32f4xx_flash_ramfunc.o(.rev16_text), (4 bytes).
    Removing stm32f4xx_flash_ramfunc.o(.revsh_text), (4 bytes).
    Removing stm32f4xx_flash_ramfunc.o(i.FLASH_FlashInterfaceCmd), (28 bytes).
    Removing stm32f4xx_flash_ramfunc.o(i.FLASH_FlashSleepModeCmd), (28 bytes).
    Removing stm32f4xx_gpio.o(.rev16_text), (4 bytes).
    Removing stm32f4xx_gpio.o(.revsh_text), (4 bytes).
    Removing stm32f4xx_gpio.o(i.GPIO_DeInit), (260 bytes).
    Removing stm32f4xx_gpio.o(i.GPIO_PinLockConfig), (24 bytes).
    Removing stm32f4xx_gpio.o(i.GPIO_ReadInputData), (6 bytes).
    Removing stm32f4xx_gpio.o(i.GPIO_ReadInputDataBit), (14 bytes).
    Removing stm32f4xx_gpio.o(i.GPIO_ReadOutputData), (6 bytes).
    Removing stm32f4xx_gpio.o(i.GPIO_ReadOutputDataBit), (14 bytes).
    Removing stm32f4xx_gpio.o(i.GPIO_StructInit), (18 bytes).
    Removing stm32f4xx_gpio.o(i.GPIO_ToggleBits), (8 bytes).
    Removing stm32f4xx_gpio.o(i.GPIO_Write), (4 bytes).
    Removing stm32f4xx_gpio.o(i.GPIO_WriteBit), (10 bytes).
    Removing stm32f4xx_iwdg.o(.rev16_text), (4 bytes).
    Removing stm32f4xx_iwdg.o(.revsh_text), (4 bytes).
    Removing stm32f4xx_iwdg.o(i.IWDG_GetFlagStatus), (20 bytes).
    Removing stm32f4xx_pwr.o(.rev16_text), (4 bytes).
    Removing stm32f4xx_pwr.o(.revsh_text), (4 bytes).
    Removing stm32f4xx_pwr.o(i.PWR_BackupRegulatorCmd), (12 bytes).
    Removing stm32f4xx_pwr.o(i.PWR_ClearFlag), (16 bytes).
    Removing stm32f4xx_pwr.o(i.PWR_EnterSTANDBYMode), (32 bytes).
    Removing stm32f4xx_pwr.o(i.PWR_EnterSTOPMode), (56 bytes).
    Removing stm32f4xx_pwr.o(i.PWR_EnterUnderDriveSTOPMode), (56 bytes).
    Removing stm32f4xx_pwr.o(i.PWR_FlashPowerDownCmd), (12 bytes).
    Removing stm32f4xx_pwr.o(i.PWR_GetFlagStatus), (20 bytes).
    Removing stm32f4xx_pwr.o(i.PWR_LowRegulatorLowVoltageCmd), (16 bytes).
    Removing stm32f4xx_pwr.o(i.PWR_MainRegulatorLowVoltageCmd), (16 bytes).
    Removing stm32f4xx_pwr.o(i.PWR_MainRegulatorModeConfig), (20 bytes).
    Removing stm32f4xx_pwr.o(i.PWR_OverDriveCmd), (12 bytes).
    Removing stm32f4xx_pwr.o(i.PWR_OverDriveSWCmd), (12 bytes).
    Removing stm32f4xx_pwr.o(i.PWR_PVDCmd), (12 bytes).
    Removing stm32f4xx_pwr.o(i.PWR_PVDLevelConfig), (20 bytes).
    Removing stm32f4xx_pwr.o(i.PWR_UnderDriveCmd), (28 bytes).
    Removing stm32f4xx_pwr.o(i.PWR_WakeUpPinCmd), (12 bytes).
    Removing stm32f4xx_rcc.o(.rev16_text), (4 bytes).
    Removing stm32f4xx_rcc.o(.revsh_text), (4 bytes).
    Removing stm32f4xx_rcc.o(i.RCC_AHB1PeriphClockLPModeCmd), (24 bytes).
    Removing stm32f4xx_rcc.o(i.RCC_AHB1PeriphResetCmd), (24 bytes).
    Removing stm32f4xx_rcc.o(i.RCC_AHB2PeriphClockCmd), (24 bytes).
    Removing stm32f4xx_rcc.o(i.RCC_AHB2PeriphClockLPModeCmd), (24 bytes).
    Removing stm32f4xx_rcc.o(i.RCC_AHB2PeriphResetCmd), (24 bytes).
    Removing stm32f4xx_rcc.o(i.RCC_AHB3PeriphClockCmd), (24 bytes).
    Removing stm32f4xx_rcc.o(i.RCC_AHB3PeriphClockLPModeCmd), (24 bytes).
    Removing stm32f4xx_rcc.o(i.RCC_AHB3PeriphResetCmd), (24 bytes).
    Removing stm32f4xx_rcc.o(i.RCC_APB1PeriphClockLPModeCmd), (24 bytes).
    Removing stm32f4xx_rcc.o(i.RCC_APB2PeriphClockLPModeCmd), (24 bytes).
    Removing stm32f4xx_rcc.o(i.RCC_AdjustHSICalibrationValue), (20 bytes).
    Removing stm32f4xx_rcc.o(i.RCC_BackupResetCmd), (12 bytes).
    Removing stm32f4xx_rcc.o(i.RCC_ClearFlag), (16 bytes).
    Removing stm32f4xx_rcc.o(i.RCC_ClearITPendingBit), (12 bytes).
    Removing stm32f4xx_rcc.o(i.RCC_ClockSecuritySystemCmd), (12 bytes).
    Removing stm32f4xx_rcc.o(i.RCC_DeInit), (84 bytes).
    Removing stm32f4xx_rcc.o(i.RCC_GetITStatus), (20 bytes).
    Removing stm32f4xx_rcc.o(i.RCC_GetSYSCLKSource), (16 bytes).
    Removing stm32f4xx_rcc.o(i.RCC_HCLKConfig), (20 bytes).
    Removing stm32f4xx_rcc.o(i.RCC_HSEConfig), (16 bytes).
    Removing stm32f4xx_rcc.o(i.RCC_HSICmd), (12 bytes).
    Removing stm32f4xx_rcc.o(i.RCC_I2SCLKConfig), (12 bytes).
    Removing stm32f4xx_rcc.o(i.RCC_ITConfig), (24 bytes).
    Removing stm32f4xx_rcc.o(i.RCC_LSEConfig), (28 bytes).
    Removing stm32f4xx_rcc.o(i.RCC_LSEModeConfig), (28 bytes).
    Removing stm32f4xx_rcc.o(i.RCC_LTDCCLKDivConfig), (20 bytes).
    Removing stm32f4xx_rcc.o(i.RCC_MCO1Config), (20 bytes).
    Removing stm32f4xx_rcc.o(i.RCC_MCO2Config), (20 bytes).
    Removing stm32f4xx_rcc.o(i.RCC_PCLK1Config), (20 bytes).
    Removing stm32f4xx_rcc.o(i.RCC_PCLK2Config), (20 bytes).
    Removing stm32f4xx_rcc.o(i.RCC_PLLCmd), (12 bytes).
    Removing stm32f4xx_rcc.o(i.RCC_PLLConfig), (40 bytes).
    Removing stm32f4xx_rcc.o(i.RCC_PLLI2SCmd), (12 bytes).
    Removing stm32f4xx_rcc.o(i.RCC_PLLI2SConfig), (16 bytes).
    Removing stm32f4xx_rcc.o(i.RCC_PLLSAICmd), (12 bytes).
    Removing stm32f4xx_rcc.o(i.RCC_PLLSAIConfig), (20 bytes).
    Removing stm32f4xx_rcc.o(i.RCC_SAIBlockACLKConfig), (20 bytes).
    Removing stm32f4xx_rcc.o(i.RCC_SAIBlockBCLKConfig), (20 bytes).
    Removing stm32f4xx_rcc.o(i.RCC_SAIPLLI2SClkDivConfig), (20 bytes).
    Removing stm32f4xx_rcc.o(i.RCC_SAIPLLSAIClkDivConfig), (28 bytes).
    Removing stm32f4xx_rcc.o(i.RCC_SYSCLKConfig), (20 bytes).
    Removing stm32f4xx_rcc.o(i.RCC_TIMCLKPresConfig), (12 bytes).
    Removing stm32f4xx_rcc.o(i.RCC_WaitForHSEStartUp), (44 bytes).
    Removing stm32f4xx_rtc.o(.rev16_text), (4 bytes).
    Removing stm32f4xx_rtc.o(.revsh_text), (4 bytes).
    Removing stm32f4xx_rtc.o(i.RTC_AlarmCmd), (84 bytes).
    Removing stm32f4xx_rtc.o(i.RTC_AlarmStructInit), (20 bytes).
    Removing stm32f4xx_rtc.o(i.RTC_AlarmSubSecondConfig), (44 bytes).
    Removing stm32f4xx_rtc.o(i.RTC_BypassShadowCmd), (44 bytes).
    Removing stm32f4xx_rtc.o(i.RTC_CalibOutputCmd), (44 bytes).
    Removing stm32f4xx_rtc.o(i.RTC_CalibOutputConfig), (40 bytes).
    Removing stm32f4xx_rtc.o(i.RTC_ClearFlag), (28 bytes).
    Removing stm32f4xx_rtc.o(i.RTC_ClearITPendingBit), (28 bytes).
    Removing stm32f4xx_rtc.o(i.RTC_CoarseCalibCmd), (60 bytes).
    Removing stm32f4xx_rtc.o(i.RTC_CoarseCalibConfig), (52 bytes).
    Removing stm32f4xx_rtc.o(i.RTC_DateStructInit), (14 bytes).
    Removing stm32f4xx_rtc.o(i.RTC_DayLightSavingConfig), (44 bytes).
    Removing stm32f4xx_rtc.o(i.RTC_GetAlarm), (108 bytes).
    Removing stm32f4xx_rtc.o(i.RTC_GetAlarmSubSecond), (28 bytes).
    Removing stm32f4xx_rtc.o(i.RTC_GetFlagStatus), (28 bytes).
    Removing stm32f4xx_rtc.o(i.RTC_GetITStatus), (56 bytes).
    Removing stm32f4xx_rtc.o(i.RTC_GetStoreOperation), (16 bytes).
    Removing stm32f4xx_rtc.o(i.RTC_GetSubSecond), (16 bytes).
    Removing stm32f4xx_rtc.o(i.RTC_GetTimeStamp), (136 bytes).
    Removing stm32f4xx_rtc.o(i.RTC_GetTimeStampSubSecond), (12 bytes).
    Removing stm32f4xx_rtc.o(i.RTC_GetWakeUpCounter), (12 bytes).
    Removing stm32f4xx_rtc.o(i.RTC_ITConfig), (64 bytes).
    Removing stm32f4xx_rtc.o(i.RTC_OutputConfig), (44 bytes).
    Removing stm32f4xx_rtc.o(i.RTC_OutputTypeConfig), (24 bytes).
    Removing stm32f4xx_rtc.o(i.RTC_RefClockCmd), (60 bytes).
    Removing stm32f4xx_rtc.o(i.RTC_SetAlarm), (164 bytes).
    Removing stm32f4xx_rtc.o(i.RTC_SetWakeUpCounter), (28 bytes).
    Removing stm32f4xx_rtc.o(i.RTC_SmoothCalibConfig), (76 bytes).
    Removing stm32f4xx_rtc.o(i.RTC_StructInit), (14 bytes).
    Removing stm32f4xx_rtc.o(i.RTC_SynchroShiftConfig), (88 bytes).
    Removing stm32f4xx_rtc.o(i.RTC_TamperCmd), (24 bytes).
    Removing stm32f4xx_rtc.o(i.RTC_TamperFilterConfig), (24 bytes).
    Removing stm32f4xx_rtc.o(i.RTC_TamperPinSelection), (24 bytes).
    Removing stm32f4xx_rtc.o(i.RTC_TamperPinsPrechargeDuration), (24 bytes).
    Removing stm32f4xx_rtc.o(i.RTC_TamperPullUpCmd), (28 bytes).
    Removing stm32f4xx_rtc.o(i.RTC_TamperSamplingFreqConfig), (24 bytes).
    Removing stm32f4xx_rtc.o(i.RTC_TamperTriggerConfig), (28 bytes).
    Removing stm32f4xx_rtc.o(i.RTC_TimeStampCmd), (48 bytes).
    Removing stm32f4xx_rtc.o(i.RTC_TimeStampOnTamperDetectionCmd), (28 bytes).
    Removing stm32f4xx_rtc.o(i.RTC_TimeStampPinSelection), (24 bytes).
    Removing stm32f4xx_rtc.o(i.RTC_TimeStructInit), (12 bytes).
    Removing stm32f4xx_rtc.o(i.RTC_WakeUpClockConfig), (40 bytes).
    Removing stm32f4xx_rtc.o(i.RTC_WakeUpCmd), (88 bytes).
    Removing stm32f4xx_rtc.o(i.RTC_WriteProtectionCmd), (24 bytes).
    Removing stm32f4xx_spi.o(.rev16_text), (4 bytes).
    Removing stm32f4xx_spi.o(.revsh_text), (4 bytes).
    Removing stm32f4xx_spi.o(i.I2S_Cmd), (20 bytes).
    Removing stm32f4xx_spi.o(i.I2S_FullDuplexConfig), (58 bytes).
    Removing stm32f4xx_spi.o(i.I2S_Init), (212 bytes).
    Removing stm32f4xx_spi.o(i.I2S_StructInit), (18 bytes).
    Removing stm32f4xx_spi.o(i.SPI_BiDirectionalLineConfig), (22 bytes).
    Removing stm32f4xx_spi.o(i.SPI_CalculateCRC), (20 bytes).
    Removing stm32f4xx_spi.o(i.SPI_DataSizeConfig), (16 bytes).
    Removing stm32f4xx_spi.o(i.SPI_GetCRC), (12 bytes).
    Removing stm32f4xx_spi.o(i.SPI_GetCRCPolynomial), (4 bytes).
    Removing stm32f4xx_spi.o(i.SPI_I2S_ClearFlag), (6 bytes).
    Removing stm32f4xx_spi.o(i.SPI_I2S_ClearITPendingBit), (14 bytes).
    Removing stm32f4xx_spi.o(i.SPI_I2S_DMACmd), (16 bytes).
    Removing stm32f4xx_spi.o(i.SPI_I2S_DeInit), (132 bytes).
    Removing stm32f4xx_spi.o(i.SPI_I2S_GetITStatus), (44 bytes).
    Removing stm32f4xx_spi.o(i.SPI_I2S_ITConfig), (24 bytes).
    Removing stm32f4xx_spi.o(i.SPI_NSSInternalSoftwareConfig), (24 bytes).
    Removing stm32f4xx_spi.o(i.SPI_SSOutputCmd), (20 bytes).
    Removing stm32f4xx_spi.o(i.SPI_StructInit), (24 bytes).
    Removing stm32f4xx_spi.o(i.SPI_TIModeCmd), (20 bytes).
    Removing stm32f4xx_spi.o(i.SPI_TransmitCRC), (10 bytes).
    Removing stm32f4xx_syscfg.o(.rev16_text), (4 bytes).
    Removing stm32f4xx_syscfg.o(.revsh_text), (4 bytes).
    Removing stm32f4xx_syscfg.o(i.SYSCFG_CompensationCellCmd), (12 bytes).
    Removing stm32f4xx_syscfg.o(i.SYSCFG_DeInit), (24 bytes).
    Removing stm32f4xx_syscfg.o(i.SYSCFG_ETH_MediaInterfaceConfig), (12 bytes).
    Removing stm32f4xx_syscfg.o(i.SYSCFG_GetCompensationCellStatus), (20 bytes).
    Removing stm32f4xx_syscfg.o(i.SYSCFG_MemoryRemapConfig), (12 bytes).
    Removing stm32f4xx_syscfg.o(i.SYSCFG_MemorySwappingBank), (12 bytes).
    Removing stm32f4xx_tim.o(.rev16_text), (4 bytes).
    Removing stm32f4xx_tim.o(.revsh_text), (4 bytes).
    Removing stm32f4xx_tim.o(i.TI1_Config), (46 bytes).
    Removing stm32f4xx_tim.o(i.TI2_Config), (54 bytes).
    Removing stm32f4xx_tim.o(i.TIM_BDTRConfig), (34 bytes).
    Removing stm32f4xx_tim.o(i.TIM_BDTRStructInit), (18 bytes).
    Removing stm32f4xx_tim.o(i.TIM_CCPreloadControl), (20 bytes).
    Removing stm32f4xx_tim.o(i.TIM_CCxCmd), (22 bytes).
    Removing stm32f4xx_tim.o(i.TIM_CCxNCmd), (22 bytes).
    Removing stm32f4xx_tim.o(i.TIM_ClearFlag), (6 bytes).
    Removing stm32f4xx_tim.o(i.TIM_ClearOC1Ref), (12 bytes).
    Removing stm32f4xx_tim.o(i.TIM_ClearOC2Ref), (20 bytes).
    Removing stm32f4xx_tim.o(i.TIM_ClearOC3Ref), (12 bytes).
    Removing stm32f4xx_tim.o(i.TIM_ClearOC4Ref), (20 bytes).
    Removing stm32f4xx_tim.o(i.TIM_CounterModeConfig), (12 bytes).
    Removing stm32f4xx_tim.o(i.TIM_DMACmd), (16 bytes).
    Removing stm32f4xx_tim.o(i.TIM_DMAConfig), (8 bytes).
    Removing stm32f4xx_tim.o(i.TIM_DeInit), (336 bytes).
    Removing stm32f4xx_tim.o(i.TIM_ETRClockMode1Config), (18 bytes).
    Removing stm32f4xx_tim.o(i.TIM_ETRClockMode2Config), (18 bytes).
    Removing stm32f4xx_tim.o(i.TIM_ETRConfig), (24 bytes).
    Removing stm32f4xx_tim.o(i.TIM_EncoderInterfaceConfig), (50 bytes).
    Removing stm32f4xx_tim.o(i.TIM_ForcedOC1Config), (12 bytes).
    Removing stm32f4xx_tim.o(i.TIM_ForcedOC2Config), (20 bytes).
    Removing stm32f4xx_tim.o(i.TIM_ForcedOC3Config), (12 bytes).
    Removing stm32f4xx_tim.o(i.TIM_ForcedOC4Config), (20 bytes).
    Removing stm32f4xx_tim.o(i.TIM_GenerateEvent), (4 bytes).
    Removing stm32f4xx_tim.o(i.TIM_GetCapture1), (4 bytes).
    Removing stm32f4xx_tim.o(i.TIM_GetCapture2), (4 bytes).
    Removing stm32f4xx_tim.o(i.TIM_GetCapture3), (4 bytes).
    Removing stm32f4xx_tim.o(i.TIM_GetCapture4), (4 bytes).
    Removing stm32f4xx_tim.o(i.TIM_GetCounter), (4 bytes).
    Removing stm32f4xx_tim.o(i.TIM_GetFlagStatus), (14 bytes).
    Removing stm32f4xx_tim.o(i.TIM_GetPrescaler), (4 bytes).
    Removing stm32f4xx_tim.o(i.TIM_ICInit), (172 bytes).
    Removing stm32f4xx_tim.o(i.TIM_ICStructInit), (16 bytes).
    Removing stm32f4xx_tim.o(i.TIM_ITRxExternalClockConfig), (18 bytes).
    Removing stm32f4xx_tim.o(i.TIM_InternalClockConfig), (10 bytes).
    Removing stm32f4xx_tim.o(i.TIM_OC1FastConfig), (12 bytes).
    Removing stm32f4xx_tim.o(i.TIM_OC1Init), (96 bytes).
    Removing stm32f4xx_tim.o(i.TIM_OC1NPolarityConfig), (12 bytes).
    Removing stm32f4xx_tim.o(i.TIM_OC1PolarityConfig), (12 bytes).
    Removing stm32f4xx_tim.o(i.TIM_OC1PreloadConfig), (12 bytes).
    Removing stm32f4xx_tim.o(i.TIM_OC2FastConfig), (20 bytes).
    Removing stm32f4xx_tim.o(i.TIM_OC2NPolarityConfig), (20 bytes).
    Removing stm32f4xx_tim.o(i.TIM_OC2PolarityConfig), (20 bytes).
    Removing stm32f4xx_tim.o(i.TIM_OC3FastConfig), (12 bytes).
    Removing stm32f4xx_tim.o(i.TIM_OC3NPolarityConfig), (20 bytes).
    Removing stm32f4xx_tim.o(i.TIM_OC3PolarityConfig), (20 bytes).
    Removing stm32f4xx_tim.o(i.TIM_OC4FastConfig), (20 bytes).
    Removing stm32f4xx_tim.o(i.TIM_OC4PolarityConfig), (20 bytes).
    Removing stm32f4xx_tim.o(i.TIM_OCStructInit), (20 bytes).
    Removing stm32f4xx_tim.o(i.TIM_PWMIConfig), (108 bytes).
    Removing stm32f4xx_tim.o(i.TIM_RemapConfig), (6 bytes).
    Removing stm32f4xx_tim.o(i.TIM_SelectCCDMA), (20 bytes).
    Removing stm32f4xx_tim.o(i.TIM_SelectCOM), (20 bytes).
    Removing stm32f4xx_tim.o(i.TIM_SelectHallSensor), (20 bytes).
    Removing stm32f4xx_tim.o(i.TIM_SelectInputTrigger), (12 bytes).
    Removing stm32f4xx_tim.o(i.TIM_SelectMasterSlaveMode), (16 bytes).
    Removing stm32f4xx_tim.o(i.TIM_SelectOCxM), (74 bytes).
    Removing stm32f4xx_tim.o(i.TIM_SelectOnePulseMode), (16 bytes).
    Removing stm32f4xx_tim.o(i.TIM_SelectOutputTrigger), (16 bytes).
    Removing stm32f4xx_tim.o(i.TIM_SelectSlaveMode), (16 bytes).
    Removing stm32f4xx_tim.o(i.TIM_SetAutoreload), (4 bytes).
    Removing stm32f4xx_tim.o(i.TIM_SetClockDivision), (16 bytes).
    Removing stm32f4xx_tim.o(i.TIM_SetCompare1), (4 bytes).
    Removing stm32f4xx_tim.o(i.TIM_SetCounter), (4 bytes).
    Removing stm32f4xx_tim.o(i.TIM_SetIC1Prescaler), (16 bytes).
    Removing stm32f4xx_tim.o(i.TIM_SetIC2Prescaler), (24 bytes).
    Removing stm32f4xx_tim.o(i.TIM_SetIC3Prescaler), (16 bytes).
    Removing stm32f4xx_tim.o(i.TIM_SetIC4Prescaler), (24 bytes).
    Removing stm32f4xx_tim.o(i.TIM_TIxExternalClockConfig), (46 bytes).
    Removing stm32f4xx_tim.o(i.TIM_TimeBaseStructInit), (18 bytes).
    Removing stm32f4xx_tim.o(i.TIM_UpdateDisableConfig), (20 bytes).
    Removing stm32f4xx_tim.o(i.TIM_UpdateRequestConfig), (20 bytes).
    Removing stm32f4xx_usart.o(.rev16_text), (4 bytes).
    Removing stm32f4xx_usart.o(.revsh_text), (4 bytes).
    Removing stm32f4xx_usart.o(i.USART_ClearITPendingBit), (12 bytes).
    Removing stm32f4xx_usart.o(i.USART_ClockInit), (28 bytes).
    Removing stm32f4xx_usart.o(i.USART_ClockStructInit), (12 bytes).
    Removing stm32f4xx_usart.o(i.USART_DeInit), (172 bytes).
    Removing stm32f4xx_usart.o(i.USART_GetITStatus), (62 bytes).
    Removing stm32f4xx_usart.o(i.USART_HalfDuplexCmd), (20 bytes).
    Removing stm32f4xx_usart.o(i.USART_ITConfig), (48 bytes).
    Removing stm32f4xx_usart.o(i.USART_IrDACmd), (20 bytes).
    Removing stm32f4xx_usart.o(i.USART_IrDAConfig), (16 bytes).
    Removing stm32f4xx_usart.o(i.USART_LINBreakDetectLengthConfig), (16 bytes).
    Removing stm32f4xx_usart.o(i.USART_LINCmd), (20 bytes).
    Removing stm32f4xx_usart.o(i.USART_OneBitMethodCmd), (20 bytes).
    Removing stm32f4xx_usart.o(i.USART_OverSampling8Cmd), (20 bytes).
    Removing stm32f4xx_usart.o(i.USART_ReceiveData), (8 bytes).
    Removing stm32f4xx_usart.o(i.USART_ReceiverWakeUpCmd), (20 bytes).
    Removing stm32f4xx_usart.o(i.USART_SendBreak), (10 bytes).
    Removing stm32f4xx_usart.o(i.USART_SendData), (8 bytes).
    Removing stm32f4xx_usart.o(i.USART_SetAddress), (16 bytes).
    Removing stm32f4xx_usart.o(i.USART_SetGuardTime), (16 bytes).
    Removing stm32f4xx_usart.o(i.USART_SetPrescaler), (16 bytes).
    Removing stm32f4xx_usart.o(i.USART_SmartCardCmd), (20 bytes).
    Removing stm32f4xx_usart.o(i.USART_SmartCardNACKCmd), (20 bytes).
    Removing stm32f4xx_usart.o(i.USART_StructInit), (22 bytes).
    Removing stm32f4xx_usart.o(i.USART_WakeUpConfig), (16 bytes).
    Removing stm32f4xx_wwdg.o(.rev16_text), (4 bytes).
    Removing stm32f4xx_wwdg.o(.revsh_text), (4 bytes).
    Removing stm32f4xx_wwdg.o(i.WWDG_ClearFlag), (12 bytes).
    Removing stm32f4xx_wwdg.o(i.WWDG_DeInit), (24 bytes).
    Removing stm32f4xx_wwdg.o(i.WWDG_Enable), (16 bytes).
    Removing stm32f4xx_wwdg.o(i.WWDG_EnableIT), (16 bytes).
    Removing stm32f4xx_wwdg.o(i.WWDG_GetFlagStatus), (20 bytes).
    Removing stm32f4xx_wwdg.o(i.WWDG_SetCounter), (16 bytes).
    Removing stm32f4xx_wwdg.o(i.WWDG_SetPrescaler), (20 bytes).
    Removing stm32f4xx_wwdg.o(i.WWDG_SetWindowValue), (28 bytes).
    Removing stm32f4xx_it.o(.rev16_text), (4 bytes).
    Removing stm32f4xx_it.o(.revsh_text), (4 bytes).
    Removing system_stm32f4xx.o(.rev16_text), (4 bytes).
    Removing system_stm32f4xx.o(.revsh_text), (4 bytes).
    Removing system_stm32f4xx.o(i.SystemCoreClockUpdate), (120 bytes).
    Removing main.o(.rev16_text), (4 bytes).
    Removing main.o(.revsh_text), (4 bytes).
    Removing led.o(.rev16_text), (4 bytes).
    Removing led.o(.revsh_text), (4 bytes).
    Removing led.o(i.LED_Init), (52 bytes).
    Removing led.o(i.LedBlink), (140 bytes).
    Removing led.o(i.LedOnD1), (16 bytes).
    Removing led.o(i.LedOnD2), (16 bytes).
    Removing led.o(i.LedOnD3), (16 bytes).
    Removing led.o(i.LedOnD4), (16 bytes).
    Removing oled.o(.rev16_text), (4 bytes).
    Removing oled.o(.revsh_text), (4 bytes).
    Removing oled.o(i.OLED_Display_Off), (30 bytes).
    Removing oled.o(i.OLED_ShowChar), (96 bytes).
    Removing oled.o(i.OLED_ShowNum), (98 bytes).
    Removing oled.o(i.OLED_ShowString), (50 bytes).
    Removing oled.o(i.SPI2Init), (96 bytes).
    Removing oled.o(i.Spi2IOInit), (116 bytes).
    Removing oled.o(i.oled_pow), (16 bytes).
    Removing uart.o(.rev16_text), (4 bytes).
    Removing uart.o(.revsh_text), (4 bytes).
    Removing uart.o(i.PrintfIOTPort3), (10 bytes).
    Removing uart.o(i.Printfmsg2), (4 bytes).
    Removing uart.o(i.Printfmsg3), (4 bytes).
    Removing uart.o(i.Printfmsg4), (4 bytes).
    Removing uart.o(i.UART1_SentChar), (52 bytes).
    Removing uart.o(i.UART1_SentMsg), (96 bytes).
    Removing uart.o(i.UART2_SentChar), (52 bytes).
    Removing uart.o(i.UART3Init), (196 bytes).
    Removing uart.o(i.UART3_DMA_Init), (216 bytes).
    Removing uart.o(i.UART3_SentMsg), (100 bytes).
    Removing uart.o(i.UART3_SentMsgL), (104 bytes).
    Removing uart.o(i.UART4_SentMsg), (104 bytes).
    Removing uart.o(i.rt_hw_console_output2), (4 bytes).
    Removing uart.o(i.rt_hw_console_output3), (4 bytes).
    Removing uart.o(i.rt_hw_console_output4), (4 bytes).
    Removing uart.o(i.rt_kprintf3), (32 bytes).
    Removing uart.o(i.rt_kprintf4), (32 bytes).
    Removing uart.o(.data), (1 bytes).
    Removing uart.o(.data), (1 bytes).
    Removing key.o(.rev16_text), (4 bytes).
    Removing key.o(.revsh_text), (4 bytes).
    Removing queue.o(.rev16_text), (4 bytes).
    Removing queue.o(.revsh_text), (4 bytes).
    Removing queue.o(i.FifoBack), (118 bytes).
    Removing queue.o(i.GetTsakFiFoCount), (4 bytes).
    Removing queue.o(i.get_queue_size), (4 bytes).
    Removing queue.o(.data), (1 bytes).
    Removing iwdg.o(.rev16_text), (4 bytes).
    Removing iwdg.o(.revsh_text), (4 bytes).
    Removing rtc.o(.rev16_text), (4 bytes).
    Removing rtc.o(.revsh_text), (4 bytes).
    Removing common.o(.rev16_text), (4 bytes).
    Removing common.o(.revsh_text), (4 bytes).
    Removing common.o(i.DataLine), (66 bytes).
    Removing common.o(i.GetCesqValue), (228 bytes).
    Removing common.o(i.GetOutputData), (120 bytes).
    Removing common.o(i.GetRecvIOTMsg), (556 bytes).
    Removing common.o(i.TransferDataToString), (48 bytes).
    Removing nrf24l01.o(.rev16_text), (4 bytes).
    Removing nrf24l01.o(.revsh_text), (4 bytes).
    Removing nrf24l01.o(.data), (4 bytes).
    Removing cjson.o(i.cJSON_AddItemReferenceToArray), (22 bytes).
    Removing cjson.o(i.cJSON_AddItemReferenceToObject), (26 bytes).
    Removing cjson.o(i.cJSON_AddItemToArray), (28 bytes).
    Removing cjson.o(i.cJSON_AddItemToObject), (48 bytes).
    Removing cjson.o(i.cJSON_AddItemToObjectCS), (56 bytes).
    Removing cjson.o(i.cJSON_CreateArray), (16 bytes).
    Removing cjson.o(i.cJSON_CreateBool), (24 bytes).
    Removing cjson.o(i.cJSON_CreateDoubleArray), (58 bytes).
    Removing cjson.o(i.cJSON_CreateFalse), (16 bytes).
    Removing cjson.o(i.cJSON_CreateFloatArray), (62 bytes).
    Removing cjson.o(i.cJSON_CreateIntArray), (62 bytes).
    Removing cjson.o(i.cJSON_CreateNull), (16 bytes).
    Removing cjson.o(i.cJSON_CreateNumber), (48 bytes).
    Removing cjson.o(i.cJSON_CreateObject), (16 bytes).
    Removing cjson.o(i.cJSON_CreateString), (28 bytes).
    Removing cjson.o(i.cJSON_CreateStringArray), (54 bytes).
    Removing cjson.o(i.cJSON_CreateTrue), (16 bytes).
    Removing cjson.o(i.cJSON_DeleteItemFromArray), (14 bytes).
    Removing cjson.o(i.cJSON_DeleteItemFromObject), (14 bytes).
    Removing cjson.o(i.cJSON_DetachItemFromArray), (52 bytes).
    Removing cjson.o(i.cJSON_DetachItemFromObject), (50 bytes).
    Removing cjson.o(i.cJSON_Duplicate), (118 bytes).
    Removing cjson.o(i.cJSON_GetArrayItem), (18 bytes).
    Removing cjson.o(i.cJSON_GetArraySize), (16 bytes).
    Removing cjson.o(i.cJSON_GetErrorPtr), (12 bytes).
    Removing cjson.o(i.cJSON_InitHooks), (44 bytes).
    Removing cjson.o(i.cJSON_InsertItemInArray), (44 bytes).
    Removing cjson.o(i.cJSON_Minify), (144 bytes).
    Removing cjson.o(i.cJSON_Print), (10 bytes).
    Removing cjson.o(i.cJSON_PrintBuffered), (44 bytes).
    Removing cjson.o(i.cJSON_PrintUnformatted), (10 bytes).
    Removing cjson.o(i.cJSON_ReplaceItemInArray), (62 bytes).
    Removing cjson.o(i.cJSON_ReplaceItemInObject), (62 bytes).
    Removing cjson.o(i.cJSON_strdup), (40 bytes).
    Removing cjson.o(i.create_reference), (44 bytes).
    Removing cjson.o(i.ensure), (112 bytes).
    Removing cjson.o(i.print_array), (492 bytes).
    Removing cjson.o(i.print_number), (456 bytes).
    Removing cjson.o(i.print_object), (884 bytes).
    Removing cjson.o(i.print_string), (6 bytes).
    Removing cjson.o(i.print_string_ptr), (368 bytes).
    Removing cjson.o(i.print_value), (188 bytes).
    Removing cjson.o(i.update), (28 bytes).
    Removing bluetooth.o(.rev16_text), (4 bytes).
    Removing bluetooth.o(.revsh_text), (4 bytes).
    Removing wifi.o(.rev16_text), (4 bytes).
    Removing wifi.o(.revsh_text), (4 bytes).
    Removing wifi.o(i.stop_wifi_network), (52 bytes).
    Removing timer.o(.rev16_text), (4 bytes).
    Removing timer.o(.revsh_text), (4 bytes).
    Removing bmp.o(.data), (1024 bytes).
    Removing bmp.o(.data), (1024 bytes).
    Removing oledfont.o(.data), (448 bytes).
    Removing oledfont.o(.data), (42 bytes).
    Removing oledfont.o(.data), (16 bytes).
    Removing oledfont.o(.data), (5 bytes).
    Removing oledfont.o(.data), (16 bytes).
    Removing oledfont.o(.data), (16 bytes).
    Removing oledfont.o(.data), (16 bytes).
    Removing ht_sensor.o(.rev16_text), (4 bytes).
    Removing ht_sensor.o(.revsh_text), (4 bytes).
    Removing msg_deal.o(.rev16_text), (4 bytes).
    Removing msg_deal.o(.revsh_text), (4 bytes).
    Removing show.o(.rev16_text), (4 bytes).
    Removing show.o(.revsh_text), (4 bytes).

549 unused section(s) (total 21070 bytes) removed from the image.

==============================================================================

Image Symbol Table

    Local Symbols

    Symbol Name                              Value     Ov Type        Size  Object(Section)

    ../clib/angel/boardlib.s                 0x00000000   Number         0  boardinit1.o ABSOLUTE
    ../clib/angel/boardlib.s                 0x00000000   Number         0  boardinit2.o ABSOLUTE
    ../clib/angel/boardlib.s                 0x00000000   Number         0  boardinit3.o ABSOLUTE
    ../clib/angel/boardlib.s                 0x00000000   Number         0  boardshut.o ABSOLUTE
    ../clib/angel/dczerorl2.s                0x00000000   Number         0  __dczerorl2.o ABSOLUTE
    ../clib/angel/handlers.s                 0x00000000   Number         0  __scatter_zi.o ABSOLUTE
    ../clib/angel/kernel.s                   0x00000000   Number         0  rtexit.o ABSOLUTE
    ../clib/angel/kernel.s                   0x00000000   Number         0  __rtentry.o ABSOLUTE
    ../clib/angel/kernel.s                   0x00000000   Number         0  rtexit2.o ABSOLUTE
    ../clib/angel/kernel.s                   0x00000000   Number         0  __rtentry2.o ABSOLUTE
    ../clib/angel/kernel.s                   0x00000000   Number         0  __rtentry4.o ABSOLUTE
    ../clib/angel/rt.s                       0x00000000   Number         0  rt_locale.o ABSOLUTE
    ../clib/angel/rt.s                       0x00000000   Number         0  rt_errno_addr_intlibspace.o ABSOLUTE
    ../clib/angel/rt.s                       0x00000000   Number         0  rt_errno_addr.o ABSOLUTE
    ../clib/angel/rt.s                       0x00000000   Number         0  rt_heap_descriptor.o ABSOLUTE
    ../clib/angel/rt.s                       0x00000000   Number         0  rt_locale_intlibspace.o ABSOLUTE
    ../clib/angel/rt.s                       0x00000000   Number         0  rt_ctype_table.o ABSOLUTE
    ../clib/angel/rt.s                       0x00000000   Number         0  rt_heap_descriptor_intlibspace.o ABSOLUTE
    ../clib/angel/rt.s                       0x00000000   Number         0  rt_raise.o ABSOLUTE
    ../clib/angel/scatter.s                  0x00000000   Number         0  __scatter.o ABSOLUTE
    ../clib/angel/startup.s                  0x00000000   Number         0  __main.o ABSOLUTE
    ../clib/angel/sys.s                      0x00000000   Number         0  libspace.o ABSOLUTE
    ../clib/angel/sys.s                      0x00000000   Number         0  indicate_semi.o ABSOLUTE
    ../clib/angel/sys.s                      0x00000000   Number         0  sys_stackheap_outer.o ABSOLUTE
    ../clib/angel/sys.s                      0x00000000   Number         0  use_no_semi.o ABSOLUTE
    ../clib/angel/sys.s                      0x00000000   Number         0  mutex_dummy.o ABSOLUTE
    ../clib/angel/sysapp.c                   0x00000000   Number         0  sys_command.o ABSOLUTE
    ../clib/angel/sysapp.c                   0x00000000   Number         0  sys_wrch.o ABSOLUTE
    ../clib/angel/sysapp.c                   0x00000000   Number         0  sys_exit.o ABSOLUTE
    ../clib/armsys.c                         0x00000000   Number         0  _get_argv.o ABSOLUTE
    ../clib/armsys.c                         0x00000000   Number         0  _get_argv_nomalloc.o ABSOLUTE
    ../clib/armsys.c                         0x00000000   Number         0  no_argv.o ABSOLUTE
    ../clib/armsys.c                         0x00000000   Number         0  argv_veneer.o ABSOLUTE
    ../clib/armsys.c                         0x00000000   Number         0  argv_veneer.o ABSOLUTE
    ../clib/bigflt.c                         0x00000000   Number         0  bigflt0.o ABSOLUTE
    ../clib/btod.s                           0x00000000   Number         0  btod.o ABSOLUTE
    ../clib/ctype.c                          0x00000000   Number         0  tolower.o ABSOLUTE
    ../clib/fenv.c                           0x00000000   Number         0  _rserrno.o ABSOLUTE
    ../clib/heap1.c                          0x00000000   Number         0  h1_free_mt.o ABSOLUTE
    ../clib/heap1.c                          0x00000000   Number         0  h1_free.o ABSOLUTE
    ../clib/heap1.c                          0x00000000   Number         0  h1_final_mt.o ABSOLUTE
    ../clib/heap1.c                          0x00000000   Number         0  h1_alloc_mt.o ABSOLUTE
    ../clib/heap1.c                          0x00000000   Number         0  h1_alloc.o ABSOLUTE
    ../clib/heap1.c                          0x00000000   Number         0  h1_init.o ABSOLUTE
    ../clib/heap1.c                          0x00000000   Number         0  h1_init_mt.o ABSOLUTE
    ../clib/heap1.c                          0x00000000   Number         0  h1_extend_mt.o ABSOLUTE
    ../clib/heap1.c                          0x00000000   Number         0  h1_extend.o ABSOLUTE
    ../clib/heap1.c                          0x00000000   Number         0  h1_final.o ABSOLUTE
    ../clib/heap2.c                          0x00000000   Number         0  fdtree.o ABSOLUTE
    ../clib/heap2.c                          0x00000000   Number         0  heap2mt.o ABSOLUTE
    ../clib/heap2.c                          0x00000000   Number         0  heap2.o ABSOLUTE
    ../clib/heapalloc.c                      0x00000000   Number         0  term_alloc.o ABSOLUTE
    ../clib/heapalloc.c                      0x00000000   Number         0  maybetermalloc2.o ABSOLUTE
    ../clib/heapalloc.c                      0x00000000   Number         0  heapstubs.o ABSOLUTE
    ../clib/heapalloc.c                      0x00000000   Number         0  maybetermalloc2.o ABSOLUTE
    ../clib/heapalloc.c                      0x00000000   Number         0  maybetermalloc1.o ABSOLUTE
    ../clib/heapalloc.c                      0x00000000   Number         0  maybetermalloc1.o ABSOLUTE
    ../clib/heapalloc.c                      0x00000000   Number         0  hrguard.o ABSOLUTE
    ../clib/heapalloc.c                      0x00000000   Number         0  init_alloc.o ABSOLUTE
    ../clib/heapalloc.c                      0x00000000   Number         0  hguard.o ABSOLUTE
    ../clib/heapalloc.c                      0x00000000   Number         0  malloc.o ABSOLUTE
    ../clib/heapalloc.c                      0x00000000   Number         0  free.o ABSOLUTE
    ../clib/heapaux.c                        0x00000000   Number         0  heapauxi.o ABSOLUTE
    ../clib/heapaux.c                        0x00000000   Number         0  heapauxa.o ABSOLUTE
    ../clib/libinit.s                        0x00000000   Number         0  libinit.o ABSOLUTE
    ../clib/libinit.s                        0x00000000   Number         0  libshutdown.o ABSOLUTE
    ../clib/libinit.s                        0x00000000   Number         0  libshutdown2.o ABSOLUTE
    ../clib/libinit.s                        0x00000000   Number         0  libinit2.o ABSOLUTE
    ../clib/locale.c                         0x00000000   Number         0  _wcrtomb.o ABSOLUTE
    ../clib/locale.s                         0x00000000   Number         0  lc_numeric_c.o ABSOLUTE
    ../clib/locale.s                         0x00000000   Number         0  lc_ctype_c.o ABSOLUTE
    ../clib/longlong.s                       0x00000000   Number         0  lludiv10.o ABSOLUTE
    ../clib/memcpset.s                       0x00000000   Number         0  strcmpv7m.o ABSOLUTE
    ../clib/memcpset.s                       0x00000000   Number         0  rt_memcpy_v6.o ABSOLUTE
    ../clib/memcpset.s                       0x00000000   Number         0  rt_memclr.o ABSOLUTE
    ../clib/memcpset.s                       0x00000000   Number         0  rt_memcpy_w.o ABSOLUTE
    ../clib/memcpset.s                       0x00000000   Number         0  rt_memclr_w.o ABSOLUTE
    ../clib/misc.s                           0x00000000   Number         0  printf_stubs.o ABSOLUTE
    ../clib/printf.c                         0x00000000   Number         0  _printf_char.o ABSOLUTE
    ../clib/printf.c                         0x00000000   Number         0  __printf_ss_wp.o ABSOLUTE
    ../clib/printf.c                         0x00000000   Number         0  __printf_flags_ss_wp.o ABSOLUTE
    ../clib/printf.c                         0x00000000   Number         0  _snputc.o ABSOLUTE
    ../clib/printf.c                         0x00000000   Number         0  _sputc.o ABSOLUTE
    ../clib/printf.c                         0x00000000   Number         0  _printf_char_common.o ABSOLUTE
    ../clib/printf.c                         0x00000000   Number         0  _printf_fp_dec.o ABSOLUTE
    ../clib/printf.c                         0x00000000   Number         0  _printf_charcount.o ABSOLUTE
    ../clib/printf.c                         0x00000000   Number         0  _printf_intcommon.o ABSOLUTE
    ../clib/printf.c                         0x00000000   Number         0  _printf_oct_ll.o ABSOLUTE
    ../clib/printf.c                         0x00000000   Number         0  vsnprintf.o ABSOLUTE
    ../clib/printf.c                         0x00000000   Number         0  _printf_truncate.o ABSOLUTE
    ../clib/printf.c                         0x00000000   Number         0  __2sprintf.o ABSOLUTE
    ../clib/printf.c                         0x00000000   Number         0  noretval__2sprintf.o ABSOLUTE
    ../clib/printf.c                         0x00000000   Number         0  __printf.o ABSOLUTE
    ../clib/printf.c                         0x00000000   Number         0  _printf_pad.o ABSOLUTE
    ../clib/printf.c                         0x00000000   Number         0  _printf_str.o ABSOLUTE
    ../clib/printf.c                         0x00000000   Number         0  _printf_dec.o ABSOLUTE
    ../clib/printf.c                         0x00000000   Number         0  _printf_hex_ll.o ABSOLUTE
    ../clib/printf.c                         0x00000000   Number         0  _printf_oct_int_ll.o ABSOLUTE
    ../clib/printf.c                         0x00000000   Number         0  _printf_wchar.o ABSOLUTE
    ../clib/printf.c                         0x00000000   Number         0  __printf_nopercent.o ABSOLUTE
    ../clib/printf.c                         0x00000000   Number         0  _printf_fp_infnan.o ABSOLUTE
    ../clib/printf.c                         0x00000000   Number         0  _printf_fp_hex.o ABSOLUTE
    ../clib/printf.c                         0x00000000   Number         0  _printf_oct_int.o ABSOLUTE
    ../clib/printf.c                         0x00000000   Number         0  _printf_hex_int.o ABSOLUTE
    ../clib/printf.c                         0x00000000   Number         0  _printf_longlong_dec.o ABSOLUTE
    ../clib/printf.c                         0x00000000   Number         0  _printf_hex_int_ll.o ABSOLUTE
    ../clib/printf.c                         0x00000000   Number         0  _printf_wctomb.o ABSOLUTE
    ../clib/printf.c                         0x00000000   Number         0  _printf_hex_ptr.o ABSOLUTE
    ../clib/printf.c                         0x00000000   Number         0  _printf_hex_int_ptr.o ABSOLUTE
    ../clib/printf.c                         0x00000000   Number         0  _printf_hex_ll_ptr.o ABSOLUTE
    ../clib/printf.c                         0x00000000   Number         0  _printf_hex_int_ll_ptr.o ABSOLUTE
    ../clib/printf.c                         0x00000000   Number         0  __printf_flags.o ABSOLUTE
    ../clib/printf.c                         0x00000000   Number         0  __printf_ss.o ABSOLUTE
    ../clib/printf.c                         0x00000000   Number         0  __printf_flags_ss.o ABSOLUTE
    ../clib/printf.c                         0x00000000   Number         0  __printf_wp.o ABSOLUTE
    ../clib/printf.c                         0x00000000   Number         0  __printf_flags_wp.o ABSOLUTE
    ../clib/printf_percent.s                 0x00000000   Number         0  _printf_p.o ABSOLUTE
    ../clib/printf_percent.s                 0x00000000   Number         0  _printf_e.o ABSOLUTE
    ../clib/printf_percent.s                 0x00000000   Number         0  _printf_percent.o ABSOLUTE
    ../clib/printf_percent.s                 0x00000000   Number         0  _printf_f.o ABSOLUTE
    ../clib/printf_percent.s                 0x00000000   Number         0  _printf_d.o ABSOLUTE
    ../clib/printf_percent.s                 0x00000000   Number         0  _printf_x.o ABSOLUTE
    ../clib/printf_percent.s                 0x00000000   Number         0  _printf_n.o ABSOLUTE
    ../clib/printf_percent.s                 0x00000000   Number         0  _printf_a.o ABSOLUTE
    ../clib/printf_percent.s                 0x00000000   Number         0  _printf_o.o ABSOLUTE
    ../clib/printf_percent.s                 0x00000000   Number         0  _printf_s.o ABSOLUTE
    ../clib/printf_percent.s                 0x00000000   Number         0  _printf_percent_end.o ABSOLUTE
    ../clib/printf_percent.s                 0x00000000   Number         0  _printf_i.o ABSOLUTE
    ../clib/printf_percent.s                 0x00000000   Number         0  _printf_u.o ABSOLUTE
    ../clib/printf_percent.s                 0x00000000   Number         0  _printf_g.o ABSOLUTE
    ../clib/printf_percent.s                 0x00000000   Number         0  _printf_c.o ABSOLUTE
    ../clib/printf_percent.s                 0x00000000   Number         0  _printf_lli.o ABSOLUTE
    ../clib/printf_percent.s                 0x00000000   Number         0  _printf_lld.o ABSOLUTE
    ../clib/printf_percent.s                 0x00000000   Number         0  _printf_llu.o ABSOLUTE
    ../clib/printf_percent.s                 0x00000000   Number         0  _printf_ll.o ABSOLUTE
    ../clib/printf_percent.s                 0x00000000   Number         0  _printf_l.o ABSOLUTE
    ../clib/printf_percent.s                 0x00000000   Number         0  _printf_lc.o ABSOLUTE
    ../clib/printf_percent.s                 0x00000000   Number         0  _printf_ls.o ABSOLUTE
    ../clib/printf_percent.s                 0x00000000   Number         0  _printf_llo.o ABSOLUTE
    ../clib/printf_percent.s                 0x00000000   Number         0  _printf_llx.o ABSOLUTE
    ../clib/signal.c                         0x00000000   Number         0  defsig_stak_inner.o ABSOLUTE
    ../clib/signal.c                         0x00000000   Number         0  defsig_rtred_inner.o ABSOLUTE
    ../clib/signal.c                         0x00000000   Number         0  defsig_fpe_inner.o ABSOLUTE
    ../clib/signal.c                         0x00000000   Number         0  defsig_abrt_inner.o ABSOLUTE
    ../clib/signal.c                         0x00000000   Number         0  defsig_general.o ABSOLUTE
    ../clib/signal.c                         0x00000000   Number         0  __raise.o ABSOLUTE
    ../clib/signal.c                         0x00000000   Number         0  defsig_pvfn_inner.o ABSOLUTE
    ../clib/signal.c                         0x00000000   Number         0  defsig_rtmem_formal.o ABSOLUTE
    ../clib/signal.c                         0x00000000   Number         0  defsig_rtmem_inner.o ABSOLUTE
    ../clib/signal.c                         0x00000000   Number         0  defsig_exit.o ABSOLUTE
    ../clib/signal.c                         0x00000000   Number         0  defsig_rtmem_outer.o ABSOLUTE
    ../clib/signal.c                         0x00000000   Number         0  defsig_cppl_inner.o ABSOLUTE
    ../clib/signal.c                         0x00000000   Number         0  defsig_other.o ABSOLUTE
    ../clib/signal.c                         0x00000000   Number         0  defsig_segv_inner.o ABSOLUTE
    ../clib/signal.s                         0x00000000   Number         0  defsig.o ABSOLUTE
    ../clib/stdlib.c                         0x00000000   Number         0  exit.o ABSOLUTE
    ../clib/string.c                         0x00000000   Number         0  strchr.o ABSOLUTE
    ../clib/string.c                         0x00000000   Number         0  strncmp.o ABSOLUTE
    ../clib/string.c                         0x00000000   Number         0  strlen.o ABSOLUTE
    ../clib/string.c                         0x00000000   Number         0  strcpy.o ABSOLUTE
    ../clib/string.c                         0x00000000   Number         0  strstr.o ABSOLUTE
    ../fplib/basic.s                         0x00000000   Number         0  basic.o ABSOLUTE
    ../fplib/daddsub.s                       0x00000000   Number         0  daddsub_clz.o ABSOLUTE
    ../fplib/dcheck1.s                       0x00000000   Number         0  dcheck1.o ABSOLUTE
    ../fplib/dcmpi.s                         0x00000000   Number         0  dcmpi.o ABSOLUTE
    ../fplib/ddiv.s                          0x00000000   Number         0  ddiv.o ABSOLUTE
    ../fplib/deqf.s                          0x00000000   Number         0  deqf.o ABSOLUTE
    ../fplib/dfix.s                          0x00000000   Number         0  dfix.o ABSOLUTE
    ../fplib/dfixu.s                         0x00000000   Number         0  dfixu.o ABSOLUTE
    ../fplib/dflt.s                          0x00000000   Number         0  dflt_clz.o ABSOLUTE
    ../fplib/dleqf.s                         0x00000000   Number         0  dleqf.o ABSOLUTE
    ../fplib/dmul.s                          0x00000000   Number         0  dmul.o ABSOLUTE
    ../fplib/dnaninf.s                       0x00000000   Number         0  dnaninf.o ABSOLUTE
    ../fplib/dretinf.s                       0x00000000   Number         0  dretinf.o ABSOLUTE
    ../fplib/drleqf.s                        0x00000000   Number         0  drleqf.o ABSOLUTE
    ../fplib/dsqrt.s                         0x00000000   Number         0  dsqrt_umaal.o ABSOLUTE
    ../fplib/f2d.s                           0x00000000   Number         0  f2d.o ABSOLUTE
    ../fplib/fnaninf.s                       0x00000000   Number         0  fnaninf.o ABSOLUTE
    ../fplib/fpinit.s                        0x00000000   Number         0  fpinit.o ABSOLUTE
    ../fplib/istatus.s                       0x00000000   Number         0  istatus.o ABSOLUTE
    ../fplib/printf1.s                       0x00000000   Number         0  printf1.o ABSOLUTE
    ../fplib/printf2.s                       0x00000000   Number         0  printf2.o ABSOLUTE
    ../fplib/printf2a.s                      0x00000000   Number         0  printf2a.o ABSOLUTE
    ../fplib/printf2b.s                      0x00000000   Number         0  printf2b.o ABSOLUTE
    ../fplib/retnan.s                        0x00000000   Number         0  retnan.o ABSOLUTE
    ../fplib/scalbn.s                        0x00000000   Number         0  scalbn.o ABSOLUTE
    ../fplib/trapv.s                         0x00000000   Number         0  trapv.o ABSOLUTE
    ../fplib/usenofp.s                       0x00000000   Number         0  usenofp.o ABSOLUTE
    ../mathlib/dunder.c                      0x00000000   Number         0  dunder.o ABSOLUTE
    ../mathlib/fabs.c                        0x00000000   Number         0  fabs.o ABSOLUTE
    ../mathlib/floor.c                       0x00000000   Number         0  floor.o ABSOLUTE
    ../mathlib/fpclassify.c                  0x00000000   Number         0  fpclassify.o ABSOLUTE
    ../mathlib/poly.c                        0x00000000   Number         0  poly.o ABSOLUTE
    ../mathlib/pow.c                         0x00000000   Number         0  pow_x.o ABSOLUTE
    ../mathlib/pow.c                         0x00000000   Number         0  pow.o ABSOLUTE
    ../mathlib/qnan.c                        0x00000000   Number         0  qnan.o ABSOLUTE
    ../mathlib/sqrt.c                        0x00000000   Number         0  sqrt.o ABSOLUTE
    ../mathlib/sqrt.c                        0x00000000   Number         0  sqrt_x.o ABSOLUTE
    ..\Core\startup_stm32f40_41xxx.s         0x00000000   Number         0  startup_stm32f40_41xxx.o ABSOLUTE
    ..\Core\stm32f4xx_it.c                   0x00000000   Number         0  stm32f4xx_it.o ABSOLUTE
    ..\Core\system_stm32f4xx.c               0x00000000   Number         0  system_stm32f4xx.o ABSOLUTE
    ..\Driver\src\misc.c                     0x00000000   Number         0  misc.o ABSOLUTE
    ..\Driver\src\stm32f4xx_adc.c            0x00000000   Number         0  stm32f4xx_adc.o ABSOLUTE
    ..\Driver\src\stm32f4xx_dac.c            0x00000000   Number         0  stm32f4xx_dac.o ABSOLUTE
    ..\Driver\src\stm32f4xx_dma.c            0x00000000   Number         0  stm32f4xx_dma.o ABSOLUTE
    ..\Driver\src\stm32f4xx_dma2d.c          0x00000000   Number         0  stm32f4xx_dma2d.o ABSOLUTE
    ..\Driver\src\stm32f4xx_exti.c           0x00000000   Number         0  stm32f4xx_exti.o ABSOLUTE
    ..\Driver\src\stm32f4xx_flash.c          0x00000000   Number         0  stm32f4xx_flash.o ABSOLUTE
    ..\Driver\src\stm32f4xx_flash_ramfunc.c  0x00000000   Number         0  stm32f4xx_flash_ramfunc.o ABSOLUTE
    ..\Driver\src\stm32f4xx_gpio.c           0x00000000   Number         0  stm32f4xx_gpio.o ABSOLUTE
    ..\Driver\src\stm32f4xx_iwdg.c           0x00000000   Number         0  stm32f4xx_iwdg.o ABSOLUTE
    ..\Driver\src\stm32f4xx_pwr.c            0x00000000   Number         0  stm32f4xx_pwr.o ABSOLUTE
    ..\Driver\src\stm32f4xx_rcc.c            0x00000000   Number         0  stm32f4xx_rcc.o ABSOLUTE
    ..\Driver\src\stm32f4xx_rtc.c            0x00000000   Number         0  stm32f4xx_rtc.o ABSOLUTE
    ..\Driver\src\stm32f4xx_spi.c            0x00000000   Number         0  stm32f4xx_spi.o ABSOLUTE
    ..\Driver\src\stm32f4xx_syscfg.c         0x00000000   Number         0  stm32f4xx_syscfg.o ABSOLUTE
    ..\Driver\src\stm32f4xx_tim.c            0x00000000   Number         0  stm32f4xx_tim.o ABSOLUTE
    ..\Driver\src\stm32f4xx_usart.c          0x00000000   Number         0  stm32f4xx_usart.o ABSOLUTE
    ..\Driver\src\stm32f4xx_wwdg.c           0x00000000   Number         0  stm32f4xx_wwdg.o ABSOLUTE
    ..\SourceCode\COMMON\common.c            0x00000000   Number         0  common.o ABSOLUTE
    ..\SourceCode\KEY\key.c                  0x00000000   Number         0  key.o ABSOLUTE
    ..\SourceCode\LED\led.c                  0x00000000   Number         0  led.o ABSOLUTE
    ..\SourceCode\NRF24L01\nrf24l01.c        0x00000000   Number         0  nrf24l01.o ABSOLUTE
    ..\SourceCode\OLED\oled.c                0x00000000   Number         0  oled.o ABSOLUTE
    ..\SourceCode\Queue\queue.c              0x00000000   Number         0  queue.o ABSOLUTE
    ..\SourceCode\RTC\rtc.c                  0x00000000   Number         0  rtc.o ABSOLUTE
    ..\SourceCode\UART\uart.c                0x00000000   Number         0  uart.o ABSOLUTE
    ..\SourceCode\WDG\iwdg.c                 0x00000000   Number         0  iwdg.o ABSOLUTE
    ..\SourceCode\bluetooth\bluetooth.c      0x00000000   Number         0  bluetooth.o ABSOLUTE
    ..\SourceCode\cJson\cJSON.c              0x00000000   Number         0  cjson.o ABSOLUTE
    ..\SourceCode\ht_sensor\ht_sensor.c      0x00000000   Number         0  ht_sensor.o ABSOLUTE
    ..\SourceCode\main.c                     0x00000000   Number         0  main.o ABSOLUTE
    ..\SourceCode\msg_deal\msg_deal.c        0x00000000   Number         0  msg_deal.o ABSOLUTE
    ..\SourceCode\oled\bmp.c                 0x00000000   Number         0  bmp.o ABSOLUTE
    ..\SourceCode\oled\oledfont.c            0x00000000   Number         0  oledfont.o ABSOLUTE
    ..\SourceCode\show\show.c                0x00000000   Number         0  show.o ABSOLUTE
    ..\SourceCode\timer\timer.c              0x00000000   Number         0  timer.o ABSOLUTE
    ..\SourceCode\wifi\wifi.c                0x00000000   Number         0  wifi.o ABSOLUTE
    ..\\Core\\stm32f4xx_it.c                 0x00000000   Number         0  stm32f4xx_it.o ABSOLUTE
    ..\\Core\\system_stm32f4xx.c             0x00000000   Number         0  system_stm32f4xx.o ABSOLUTE
    ..\\Driver\\src\\misc.c                  0x00000000   Number         0  misc.o ABSOLUTE
    ..\\Driver\\src\\stm32f4xx_adc.c         0x00000000   Number         0  stm32f4xx_adc.o ABSOLUTE
    ..\\Driver\\src\\stm32f4xx_dac.c         0x00000000   Number         0  stm32f4xx_dac.o ABSOLUTE
    ..\\Driver\\src\\stm32f4xx_dma.c         0x00000000   Number         0  stm32f4xx_dma.o ABSOLUTE
    ..\\Driver\\src\\stm32f4xx_dma2d.c       0x00000000   Number         0  stm32f4xx_dma2d.o ABSOLUTE
    ..\\Driver\\src\\stm32f4xx_exti.c        0x00000000   Number         0  stm32f4xx_exti.o ABSOLUTE
    ..\\Driver\\src\\stm32f4xx_flash.c       0x00000000   Number         0  stm32f4xx_flash.o ABSOLUTE
    ..\\Driver\\src\\stm32f4xx_flash_ramfunc.c 0x00000000   Number         0  stm32f4xx_flash_ramfunc.o ABSOLUTE
    ..\\Driver\\src\\stm32f4xx_gpio.c        0x00000000   Number         0  stm32f4xx_gpio.o ABSOLUTE
    ..\\Driver\\src\\stm32f4xx_iwdg.c        0x00000000   Number         0  stm32f4xx_iwdg.o ABSOLUTE
    ..\\Driver\\src\\stm32f4xx_pwr.c         0x00000000   Number         0  stm32f4xx_pwr.o ABSOLUTE
    ..\\Driver\\src\\stm32f4xx_rcc.c         0x00000000   Number         0  stm32f4xx_rcc.o ABSOLUTE
    ..\\Driver\\src\\stm32f4xx_rtc.c         0x00000000   Number         0  stm32f4xx_rtc.o ABSOLUTE
    ..\\Driver\\src\\stm32f4xx_spi.c         0x00000000   Number         0  stm32f4xx_spi.o ABSOLUTE
    ..\\Driver\\src\\stm32f4xx_syscfg.c      0x00000000   Number         0  stm32f4xx_syscfg.o ABSOLUTE
    ..\\Driver\\src\\stm32f4xx_tim.c         0x00000000   Number         0  stm32f4xx_tim.o ABSOLUTE
    ..\\Driver\\src\\stm32f4xx_usart.c       0x00000000   Number         0  stm32f4xx_usart.o ABSOLUTE
    ..\\Driver\\src\\stm32f4xx_wwdg.c        0x00000000   Number         0  stm32f4xx_wwdg.o ABSOLUTE
    ..\\SourceCode\\COMMON\\common.c         0x00000000   Number         0  common.o ABSOLUTE
    ..\\SourceCode\\KEY\\key.c               0x00000000   Number         0  key.o ABSOLUTE
    ..\\SourceCode\\LED\\led.c               0x00000000   Number         0  led.o ABSOLUTE
    ..\\SourceCode\\NRF24L01\\nrf24l01.c     0x00000000   Number         0  nrf24l01.o ABSOLUTE
    ..\\SourceCode\\OLED\\oled.c             0x00000000   Number         0  oled.o ABSOLUTE
    ..\\SourceCode\\Queue\\queue.c           0x00000000   Number         0  queue.o ABSOLUTE
    ..\\SourceCode\\RTC\\rtc.c               0x00000000   Number         0  rtc.o ABSOLUTE
    ..\\SourceCode\\UART\\uart.c             0x00000000   Number         0  uart.o ABSOLUTE
    ..\\SourceCode\\WDG\\iwdg.c              0x00000000   Number         0  iwdg.o ABSOLUTE
    ..\\SourceCode\\bluetooth\\bluetooth.c   0x00000000   Number         0  bluetooth.o ABSOLUTE
    ..\\SourceCode\\ht_sensor\\ht_sensor.c   0x00000000   Number         0  ht_sensor.o ABSOLUTE
    ..\\SourceCode\\main.c                   0x00000000   Number         0  main.o ABSOLUTE
    ..\\SourceCode\\msg_deal\\msg_deal.c     0x00000000   Number         0  msg_deal.o ABSOLUTE
    ..\\SourceCode\\show\\show.c             0x00000000   Number         0  show.o ABSOLUTE
    ..\\SourceCode\\timer\\timer.c           0x00000000   Number         0  timer.o ABSOLUTE
    ..\\SourceCode\\wifi\\wifi.c             0x00000000   Number         0  wifi.o ABSOLUTE
    dc.s                                     0x00000000   Number         0  dc.o ABSOLUTE
    RESET                                    0x08000000   Section      392  startup_stm32f40_41xxx.o(RESET)
    !!!main                                  0x08000188   Section        8  __main.o(!!!main)
    !!!scatter                               0x08000190   Section       52  __scatter.o(!!!scatter)
    !!dczerorl2                              0x080001c4   Section       90  __dczerorl2.o(!!dczerorl2)
    !!handler_zi                             0x08000220   Section       28  __scatter_zi.o(!!handler_zi)
    .ARM.Collect$$_printf_percent$$00000000  0x0800023c   Section        0  _printf_percent.o(.ARM.Collect$$_printf_percent$$00000000)
    .ARM.Collect$$_printf_percent$$00000001  0x0800023c   Section        6  _printf_n.o(.ARM.Collect$$_printf_percent$$00000001)
    .ARM.Collect$$_printf_percent$$00000002  0x08000242   Section        6  _printf_p.o(.ARM.Collect$$_printf_percent$$00000002)
    .ARM.Collect$$_printf_percent$$00000003  0x08000248   Section        6  _printf_f.o(.ARM.Collect$$_printf_percent$$00000003)
    .ARM.Collect$$_printf_percent$$00000004  0x0800024e   Section        6  _printf_e.o(.ARM.Collect$$_printf_percent$$00000004)
    .ARM.Collect$$_printf_percent$$00000005  0x08000254   Section        6  _printf_g.o(.ARM.Collect$$_printf_percent$$00000005)
    .ARM.Collect$$_printf_percent$$00000006  0x0800025a   Section        6  _printf_a.o(.ARM.Collect$$_printf_percent$$00000006)
    .ARM.Collect$$_printf_percent$$00000007  0x08000260   Section       10  _printf_ll.o(.ARM.Collect$$_printf_percent$$00000007)
    .ARM.Collect$$_printf_percent$$00000008  0x0800026a   Section        6  _printf_i.o(.ARM.Collect$$_printf_percent$$00000008)
    .ARM.Collect$$_printf_percent$$00000009  0x08000270   Section        6  _printf_d.o(.ARM.Collect$$_printf_percent$$00000009)
    .ARM.Collect$$_printf_percent$$0000000A  0x08000276   Section        6  _printf_u.o(.ARM.Collect$$_printf_percent$$0000000A)
    .ARM.Collect$$_printf_percent$$0000000B  0x0800027c   Section        6  _printf_o.o(.ARM.Collect$$_printf_percent$$0000000B)
    .ARM.Collect$$_printf_percent$$0000000C  0x08000282   Section        6  _printf_x.o(.ARM.Collect$$_printf_percent$$0000000C)
    .ARM.Collect$$_printf_percent$$0000000D  0x08000288   Section        6  _printf_lli.o(.ARM.Collect$$_printf_percent$$0000000D)
    .ARM.Collect$$_printf_percent$$0000000E  0x0800028e   Section        6  _printf_lld.o(.ARM.Collect$$_printf_percent$$0000000E)
    .ARM.Collect$$_printf_percent$$0000000F  0x08000294   Section        6  _printf_llu.o(.ARM.Collect$$_printf_percent$$0000000F)
    .ARM.Collect$$_printf_percent$$00000010  0x0800029a   Section        6  _printf_llo.o(.ARM.Collect$$_printf_percent$$00000010)
    .ARM.Collect$$_printf_percent$$00000011  0x080002a0   Section        6  _printf_llx.o(.ARM.Collect$$_printf_percent$$00000011)
    .ARM.Collect$$_printf_percent$$00000012  0x080002a6   Section       10  _printf_l.o(.ARM.Collect$$_printf_percent$$00000012)
    .ARM.Collect$$_printf_percent$$00000013  0x080002b0   Section        6  _printf_c.o(.ARM.Collect$$_printf_percent$$00000013)
    .ARM.Collect$$_printf_percent$$00000014  0x080002b6   Section        6  _printf_s.o(.ARM.Collect$$_printf_percent$$00000014)
    .ARM.Collect$$_printf_percent$$00000015  0x080002bc   Section        6  _printf_lc.o(.ARM.Collect$$_printf_percent$$00000015)
    .ARM.Collect$$_printf_percent$$00000016  0x080002c2   Section        6  _printf_ls.o(.ARM.Collect$$_printf_percent$$00000016)
    .ARM.Collect$$_printf_percent$$00000017  0x080002c8   Section        4  _printf_percent_end.o(.ARM.Collect$$_printf_percent$$00000017)
    .ARM.Collect$$libinit$$00000000          0x080002cc   Section        2  libinit.o(.ARM.Collect$$libinit$$00000000)
    .ARM.Collect$$libinit$$00000001          0x080002ce   Section        4  libinit2.o(.ARM.Collect$$libinit$$00000001)
    .ARM.Collect$$libinit$$00000004          0x080002d2   Section        0  libinit2.o(.ARM.Collect$$libinit$$00000004)
    .ARM.Collect$$libinit$$00000005          0x080002d2   Section        8  libinit2.o(.ARM.Collect$$libinit$$00000005)
    .ARM.Collect$$libinit$$0000000A          0x080002da   Section        0  libinit2.o(.ARM.Collect$$libinit$$0000000A)
    .ARM.Collect$$libinit$$0000000C          0x080002da   Section        0  libinit2.o(.ARM.Collect$$libinit$$0000000C)
    .ARM.Collect$$libinit$$0000000E          0x080002da   Section        0  libinit2.o(.ARM.Collect$$libinit$$0000000E)
    .ARM.Collect$$libinit$$0000000F          0x080002da   Section        6  libinit2.o(.ARM.Collect$$libinit$$0000000F)
    .ARM.Collect$$libinit$$00000011          0x080002e0   Section        0  libinit2.o(.ARM.Collect$$libinit$$00000011)
    .ARM.Collect$$libinit$$00000012          0x080002e0   Section       12  libinit2.o(.ARM.Collect$$libinit$$00000012)
    .ARM.Collect$$libinit$$00000013          0x080002ec   Section        0  libinit2.o(.ARM.Collect$$libinit$$00000013)
    .ARM.Collect$$libinit$$00000015          0x080002ec   Section        0  libinit2.o(.ARM.Collect$$libinit$$00000015)
    .ARM.Collect$$libinit$$00000016          0x080002ec   Section       10  libinit2.o(.ARM.Collect$$libinit$$00000016)
    .ARM.Collect$$libinit$$00000017          0x080002f6   Section        0  libinit2.o(.ARM.Collect$$libinit$$00000017)
    .ARM.Collect$$libinit$$00000019          0x080002f6   Section        0  libinit2.o(.ARM.Collect$$libinit$$00000019)
    .ARM.Collect$$libinit$$0000001B          0x080002f6   Section        0  libinit2.o(.ARM.Collect$$libinit$$0000001B)
    .ARM.Collect$$libinit$$0000001D          0x080002f6   Section        0  libinit2.o(.ARM.Collect$$libinit$$0000001D)
    .ARM.Collect$$libinit$$0000001F          0x080002f6   Section        0  libinit2.o(.ARM.Collect$$libinit$$0000001F)
    .ARM.Collect$$libinit$$00000021          0x080002f6   Section        0  libinit2.o(.ARM.Collect$$libinit$$00000021)
    .ARM.Collect$$libinit$$00000023          0x080002f6   Section        0  libinit2.o(.ARM.Collect$$libinit$$00000023)
    .ARM.Collect$$libinit$$00000025          0x080002f6   Section        0  libinit2.o(.ARM.Collect$$libinit$$00000025)
    .ARM.Collect$$libinit$$0000002C          0x080002f6   Section        0  libinit2.o(.ARM.Collect$$libinit$$0000002C)
    .ARM.Collect$$libinit$$0000002E          0x080002f6   Section        0  libinit2.o(.ARM.Collect$$libinit$$0000002E)
    .ARM.Collect$$libinit$$00000030          0x080002f6   Section        0  libinit2.o(.ARM.Collect$$libinit$$00000030)
    .ARM.Collect$$libinit$$00000032          0x080002f6   Section        0  libinit2.o(.ARM.Collect$$libinit$$00000032)
    .ARM.Collect$$libinit$$00000033          0x080002f6   Section        2  libinit2.o(.ARM.Collect$$libinit$$00000033)
    .ARM.Collect$$libshutdown$$00000000      0x080002f8   Section        2  libshutdown.o(.ARM.Collect$$libshutdown$$00000000)
    .ARM.Collect$$libshutdown$$00000002      0x080002fa   Section        0  libshutdown2.o(.ARM.Collect$$libshutdown$$00000002)
    .ARM.Collect$$libshutdown$$00000004      0x080002fa   Section        0  libshutdown2.o(.ARM.Collect$$libshutdown$$00000004)
    .ARM.Collect$$libshutdown$$00000006      0x080002fa   Section        0  libshutdown2.o(.ARM.Collect$$libshutdown$$00000006)
    .ARM.Collect$$libshutdown$$00000009      0x080002fa   Section        0  libshutdown2.o(.ARM.Collect$$libshutdown$$00000009)
    .ARM.Collect$$libshutdown$$0000000C      0x080002fa   Section        0  libshutdown2.o(.ARM.Collect$$libshutdown$$0000000C)
    .ARM.Collect$$libshutdown$$0000000E      0x080002fa   Section        0  libshutdown2.o(.ARM.Collect$$libshutdown$$0000000E)
    .ARM.Collect$$libshutdown$$00000011      0x080002fa   Section        0  libshutdown2.o(.ARM.Collect$$libshutdown$$00000011)
    .ARM.Collect$$libshutdown$$00000012      0x080002fa   Section        2  libshutdown2.o(.ARM.Collect$$libshutdown$$00000012)
    .ARM.Collect$$rtentry$$00000000          0x080002fc   Section        0  __rtentry.o(.ARM.Collect$$rtentry$$00000000)
    .ARM.Collect$$rtentry$$00000002          0x080002fc   Section        0  __rtentry2.o(.ARM.Collect$$rtentry$$00000002)
    .ARM.Collect$$rtentry$$00000004          0x080002fc   Section        6  __rtentry4.o(.ARM.Collect$$rtentry$$00000004)
    .ARM.Collect$$rtentry$$00000009          0x08000302   Section        0  __rtentry2.o(.ARM.Collect$$rtentry$$00000009)
    .ARM.Collect$$rtentry$$0000000A          0x08000302   Section        4  __rtentry2.o(.ARM.Collect$$rtentry$$0000000A)
    .ARM.Collect$$rtentry$$0000000C          0x08000306   Section        0  __rtentry2.o(.ARM.Collect$$rtentry$$0000000C)
    .ARM.Collect$$rtentry$$0000000D          0x08000306   Section        8  __rtentry2.o(.ARM.Collect$$rtentry$$0000000D)
    .ARM.Collect$$rtexit$$00000000           0x0800030e   Section        2  rtexit.o(.ARM.Collect$$rtexit$$00000000)
    .ARM.Collect$$rtexit$$00000002           0x08000310   Section        0  rtexit2.o(.ARM.Collect$$rtexit$$00000002)
    .ARM.Collect$$rtexit$$00000003           0x08000310   Section        4  rtexit2.o(.ARM.Collect$$rtexit$$00000003)
    .ARM.Collect$$rtexit$$00000004           0x08000314   Section        6  rtexit2.o(.ARM.Collect$$rtexit$$00000004)
    .emb_text                                0x0800031c   Section        0  maybetermalloc1.o(.emb_text)
    .text                                    0x0800031c   Section       64  startup_stm32f40_41xxx.o(.text)
    $v0                                      0x0800031c   Number         0  startup_stm32f40_41xxx.o(.text)
    .text                                    0x0800035c   Section        0  h1_alloc.o(.text)
    .text                                    0x080003ba   Section        0  h1_free.o(.text)
    .text                                    0x08000408   Section        0  tolower.o(.text)
    .text                                    0x08000424   Section        0  vsnprintf.o(.text)
    .text                                    0x08000458   Section        0  __2sprintf.o(.text)
    .text                                    0x08000484   Section        0  _printf_pad.o(.text)
    .text                                    0x080004d2   Section        0  _printf_str.o(.text)
    .text                                    0x08000524   Section        0  _printf_dec.o(.text)
    .text                                    0x0800059c   Section        0  _printf_hex_int_ll_ptr.o(.text)
    _printf_hex_common                       0x0800059d   Thumb Code     0  _printf_hex_int_ll_ptr.o(.text)
    .text                                    0x08000630   Section        0  __printf_flags_ss_wp.o(.text)
    .text                                    0x080007b8   Section        0  strstr.o(.text)
    .text                                    0x080007dc   Section        0  strlen.o(.text)
    .text                                    0x0800081a   Section        0  strncmp.o(.text)
    .text                                    0x080008b0   Section      138  rt_memcpy_v6.o(.text)
    .text                                    0x0800093a   Section      100  rt_memcpy_w.o(.text)
    .text                                    0x0800099e   Section       68  rt_memclr.o(.text)
    .text                                    0x080009e2   Section       78  rt_memclr_w.o(.text)
    .text                                    0x08000a30   Section        0  heapauxi.o(.text)
    .text                                    0x08000a38   Section       16  rt_ctype_table.o(.text)
    .text                                    0x08000a48   Section        8  rt_heap_descriptor_intlibspace.o(.text)
    .text                                    0x08000a50   Section        0  hguard.o(.text)
    .text                                    0x08000a54   Section        0  init_alloc.o(.text)
    .text                                    0x08000ade   Section        0  h1_init.o(.text)
    .text                                    0x08000aec   Section        0  _rserrno.o(.text)
    .text                                    0x08000b02   Section        0  _printf_truncate.o(.text)
    .text                                    0x08000b26   Section        0  _printf_intcommon.o(.text)
    .text                                    0x08000bd8   Section        0  _printf_charcount.o(.text)
    .text                                    0x08000c00   Section        0  _printf_fp_dec.o(.text)
    _fp_digits                               0x08000c03   Thumb Code   432  _printf_fp_dec.o(.text)
    .text                                    0x08001020   Section        0  _printf_char_common.o(.text)
    _printf_input_char                       0x08001021   Thumb Code    10  _printf_char_common.o(.text)
    .text                                    0x08001050   Section        0  _sputc.o(.text)
    .text                                    0x0800105a   Section        0  _snputc.o(.text)
    .text                                    0x0800106a   Section        0  _printf_char.o(.text)
    .text                                    0x08001098   Section        0  _printf_wctomb.o(.text)
    .text                                    0x08001154   Section        0  _printf_longlong_dec.o(.text)
    .text                                    0x080011d0   Section        0  _printf_oct_int_ll.o(.text)
    _printf_longlong_oct_internal            0x080011d1   Thumb Code     0  _printf_oct_int_ll.o(.text)
    .text                                    0x08001240   Section        8  libspace.o(.text)
    .text                                    0x08001248   Section        8  rt_locale_intlibspace.o(.text)
    .text                                    0x08001250   Section        8  rt_errno_addr_intlibspace.o(.text)
    .text                                    0x08001258   Section        0  h1_extend.o(.text)
    .text                                    0x0800128c   Section      138  lludiv10.o(.text)
    .text                                    0x08001318   Section        0  _printf_fp_hex.o(.text)
    .text                                    0x08001614   Section        0  _printf_fp_infnan.o(.text)
    .text                                    0x08001694   Section        0  _printf_wchar.o(.text)
    .text                                    0x080016c0   Section        0  bigflt0.o(.text)
    .text                                    0x080017a4   Section        0  _wcrtomb.o(.text)
    .text                                    0x080017e4   Section        0  defsig_rtmem_outer.o(.text)
    .text                                    0x080017f2   Section        2  use_no_semi.o(.text)
    .text                                    0x080017f4   Section       74  sys_stackheap_outer.o(.text)
    .text                                    0x080017f4   Section        0  indicate_semi.o(.text)
    .text                                    0x0800183e   Section        0  exit.o(.text)
    .text                                    0x08001850   Section        0  defsig_exit.o(.text)
    .text                                    0x0800185c   Section        0  defsig_rtmem_inner.o(.text)
    .text                                    0x080018ac   Section      128  strcmpv7m.o(.text)
    .text                                    0x0800192c   Section        0  sys_exit.o(.text)
    .text                                    0x08001938   Section        0  defsig_general.o(.text)
    .text                                    0x0800196a   Section        0  sys_wrch.o(.text)
    CL$$btod_d2e                             0x08001978   Section       62  btod.o(CL$$btod_d2e)
    CL$$btod_d2e_denorm_low                  0x080019b6   Section       70  btod.o(CL$$btod_d2e_denorm_low)
    CL$$btod_d2e_norm_op1                    0x080019fc   Section       96  btod.o(CL$$btod_d2e_norm_op1)
    CL$$btod_div_common                      0x08001a5c   Section      824  btod.o(CL$$btod_div_common)
    CL$$btod_e2e                             0x08001d94   Section      220  btod.o(CL$$btod_e2e)
    CL$$btod_ediv                            0x08001e70   Section       42  btod.o(CL$$btod_ediv)
    CL$$btod_emul                            0x08001e9a   Section       42  btod.o(CL$$btod_emul)
    CL$$btod_mult_common                     0x08001ec4   Section      580  btod.o(CL$$btod_mult_common)
    i.BleStateCheck                          0x08002108   Section        0  bluetooth.o(i.BleStateCheck)
    i.BusFault_Handler                       0x080021b8   Section        0  stm32f4xx_it.o(i.BusFault_Handler)
    i.DMA_ClearFlag                          0x080021bc   Section        0  stm32f4xx_dma.o(i.DMA_ClearFlag)
    i.DMA_Cmd                                0x080021e8   Section        0  stm32f4xx_dma.o(i.DMA_Cmd)
    i.DMA_DeInit                             0x080021fc   Section        0  stm32f4xx_dma.o(i.DMA_DeInit)
    i.DMA_GetCurrDataCounter                 0x08002320   Section        0  stm32f4xx_dma.o(i.DMA_GetCurrDataCounter)
    i.DMA_GetFlagStatus                      0x08002328   Section        0  stm32f4xx_dma.o(i.DMA_GetFlagStatus)
    i.DMA_Init                               0x0800235c   Section        0  stm32f4xx_dma.o(i.DMA_Init)
    i.DMA_SetCurrDataCounter                 0x080023b0   Section        0  stm32f4xx_dma.o(i.DMA_SetCurrDataCounter)
    i.DebugMon_Handler                       0x080023b4   Section        0  stm32f4xx_it.o(i.DebugMon_Handler)
    i.EXTI0_IRQHandler                       0x080023b8   Section        0  key.o(i.EXTI0_IRQHandler)
    i.EXTI1_IRQHandler                       0x080023f0   Section        0  key.o(i.EXTI1_IRQHandler)
    i.EXTI4_IRQHandler                       0x08002428   Section        0  key.o(i.EXTI4_IRQHandler)
    i.EXTI9_5_IRQHandler                     0x08002450   Section        0  key.o(i.EXTI9_5_IRQHandler)
    i.EXTI_ClearITPendingBit                 0x08002478   Section        0  stm32f4xx_exti.o(i.EXTI_ClearITPendingBit)
    i.EXTI_GetITStatus                       0x08002484   Section        0  stm32f4xx_exti.o(i.EXTI_GetITStatus)
    i.EXTI_Init                              0x08002498   Section        0  stm32f4xx_exti.o(i.EXTI_Init)
    i.FifoIn                                 0x08002508   Section        0  queue.o(i.FifoIn)
    i.FifoInit                               0x08002574   Section        0  queue.o(i.FifoInit)
    i.FifoOut                                0x0800257e   Section        0  queue.o(i.FifoOut)
    i.GPIO_Init                              0x080025d2   Section        0  stm32f4xx_gpio.o(i.GPIO_Init)
    i.GPIO_PinAFConfig                       0x0800264a   Section        0  stm32f4xx_gpio.o(i.GPIO_PinAFConfig)
    i.GPIO_ResetBits                         0x0800266a   Section        0  stm32f4xx_gpio.o(i.GPIO_ResetBits)
    i.GPIO_SetBits                           0x0800266e   Section        0  stm32f4xx_gpio.o(i.GPIO_SetBits)
    i.GetSystemTime                          0x08002674   Section        0  timer.o(i.GetSystemTime)
    i.HTSensorMode                           0x08002680   Section        0  ht_sensor.o(i.HTSensorMode)
    i.HTSensor_Init                          0x080026ac   Section        0  ht_sensor.o(i.HTSensor_Init)
    i.HardFault_Handler                      0x08002710   Section        0  stm32f4xx_it.o(i.HardFault_Handler)
    i.IIC_Ack                                0x08002714   Section        0  ht_sensor.o(i.IIC_Ack)
    i.IIC_NAck                               0x0800275c   Section        0  ht_sensor.o(i.IIC_NAck)
    i.IIC_Read_Byte                          0x080027a4   Section        0  ht_sensor.o(i.IIC_Read_Byte)
    i.IIC_Send_Byte                          0x08002814   Section        0  ht_sensor.o(i.IIC_Send_Byte)
    i.IIC_Start                              0x0800287c   Section        0  ht_sensor.o(i.IIC_Start)
    i.IIC_Stop                               0x080028c8   Section        0  ht_sensor.o(i.IIC_Stop)
    i.IIC_Wait_Ack                           0x08002914   Section        0  ht_sensor.o(i.IIC_Wait_Ack)
    i.IWDG_Enable                            0x08002970   Section        0  stm32f4xx_iwdg.o(i.IWDG_Enable)
    i.IWDG_Feed                              0x08002980   Section        0  iwdg.o(i.IWDG_Feed)
    i.IWDG_Init                              0x08002984   Section        0  iwdg.o(i.IWDG_Init)
    i.IWDG_ReloadCounter                     0x080029a8   Section        0  stm32f4xx_iwdg.o(i.IWDG_ReloadCounter)
    i.IWDG_SetPrescaler                      0x080029b8   Section        0  stm32f4xx_iwdg.o(i.IWDG_SetPrescaler)
    i.IWDG_SetReload                         0x080029c4   Section        0  stm32f4xx_iwdg.o(i.IWDG_SetReload)
    i.IWDG_WriteAccessCmd                    0x080029d0   Section        0  stm32f4xx_iwdg.o(i.IWDG_WriteAccessCmd)
    i.KEYService                             0x080029dc   Section        0  key.o(i.KEYService)
    i.KEY_Init                               0x08002a1c   Section        0  key.o(i.KEY_Init)
    i.LED_BreathingLight                     0x08002af4   Section        0  led.o(i.LED_BreathingLight)
    i.MemManage_Handler                      0x08002b40   Section        0  stm32f4xx_it.o(i.MemManage_Handler)
    i.My_RTC_Init                            0x08002b44   Section        0  rtc.o(i.My_RTC_Init)
    i.NMI_Handler                            0x08002bf8   Section        0  stm32f4xx_it.o(i.NMI_Handler)
    i.NRF24L01StateCheck                     0x08002bfc   Section        0  nrf24l01.o(i.NRF24L01StateCheck)
    i.NRF24L01_Check                         0x08002c58   Section        0  nrf24l01.o(i.NRF24L01_Check)
    i.NRF24L01_Init                          0x08002ca4   Section        0  nrf24l01.o(i.NRF24L01_Init)
    i.NRF24L01_RX_Mode                       0x08002d64   Section        0  nrf24l01.o(i.NRF24L01_RX_Mode)
    i.NRF24L01_Read_Buf                      0x08002dbc   Section        0  nrf24l01.o(i.NRF24L01_Read_Buf)
    i.NRF24L01_Read_Reg                      0x08002df8   Section        0  nrf24l01.o(i.NRF24L01_Read_Reg)
    i.NRF24L01_RxPacket                      0x08002e1c   Section        0  nrf24l01.o(i.NRF24L01_RxPacket)
    i.NRF24L01_SPI_Init                      0x08002e54   Section        0  nrf24l01.o(i.NRF24L01_SPI_Init)
    i.NRF24L01_TX_Mode                       0x08002eac   Section        0  nrf24l01.o(i.NRF24L01_TX_Mode)
    i.NRF24L01_TxPacket                      0x08002f10   Section        0  nrf24l01.o(i.NRF24L01_TxPacket)
    i.NRF24L01_Write_Buf                     0x08002f68   Section        0  nrf24l01.o(i.NRF24L01_Write_Buf)
    i.NRF24L01_Write_Reg                     0x08002fa4   Section        0  nrf24l01.o(i.NRF24L01_Write_Reg)
    i.NVIC_Init                              0x08002fd0   Section        0  misc.o(i.NVIC_Init)
    i.NVIC_PriorityGroupConfig               0x08003034   Section        0  misc.o(i.NVIC_PriorityGroupConfig)
    i.OLED_Clear                             0x08003048   Section        0  oled.o(i.OLED_Clear)
    i.OLED_Display_On                        0x08003084   Section        0  oled.o(i.OLED_Display_On)
    i.OLED_DrawBMP                           0x080030a2   Section        0  oled.o(i.OLED_DrawBMP)
    i.OLED_IOInit                            0x08003100   Section        0  oled.o(i.OLED_IOInit)
    i.OLED_Init                              0x0800313c   Section        0  oled.o(i.OLED_Init)
    i.OLED_Set_Pos                           0x08003284   Section        0  oled.o(i.OLED_Set_Pos)
    i.OLED_ShowCHinese                       0x080032b0   Section        0  oled.o(i.OLED_ShowCHinese)
    i.OLED_WR_Byte                           0x080032f8   Section        0  oled.o(i.OLED_WR_Byte)
    i.PWM_LEDInit                            0x08003374   Section        0  led.o(i.PWM_LEDInit)
    i.PWR_BackupAccessCmd                    0x0800347c   Section        0  stm32f4xx_pwr.o(i.PWR_BackupAccessCmd)
    i.PWR_DeInit                             0x08003488   Section        0  stm32f4xx_pwr.o(i.PWR_DeInit)
    i.PendSV_Handler                         0x080034a0   Section        0  stm32f4xx_it.o(i.PendSV_Handler)
    i.PrintHTInfo                            0x080034a4   Section        0  ht_sensor.o(i.PrintHTInfo)
    i.PrintfIOTPort2                         0x080034e0   Section        0  uart.o(i.PrintfIOTPort2)
    i.PrintfIOTPort4                         0x080034ea   Section        0  uart.o(i.PrintfIOTPort4)
    i.RCC_AHB1PeriphClockCmd                 0x080034f4   Section        0  stm32f4xx_rcc.o(i.RCC_AHB1PeriphClockCmd)
    i.RCC_APB1PeriphClockCmd                 0x0800350c   Section        0  stm32f4xx_rcc.o(i.RCC_APB1PeriphClockCmd)
    i.RCC_APB1PeriphResetCmd                 0x08003524   Section        0  stm32f4xx_rcc.o(i.RCC_APB1PeriphResetCmd)
    i.RCC_APB2PeriphClockCmd                 0x0800353c   Section        0  stm32f4xx_rcc.o(i.RCC_APB2PeriphClockCmd)
    i.RCC_APB2PeriphResetCmd                 0x08003554   Section        0  stm32f4xx_rcc.o(i.RCC_APB2PeriphResetCmd)
    i.RCC_GetClocksFreq                      0x0800356c   Section        0  stm32f4xx_rcc.o(i.RCC_GetClocksFreq)
    i.RCC_GetFlagStatus                      0x080035fc   Section        0  stm32f4xx_rcc.o(i.RCC_GetFlagStatus)
    i.RCC_LSICmd                             0x08003630   Section        0  stm32f4xx_rcc.o(i.RCC_LSICmd)
    i.RCC_RTCCLKCmd                          0x0800363c   Section        0  stm32f4xx_rcc.o(i.RCC_RTCCLKCmd)
    i.RCC_RTCCLKConfig                       0x08003648   Section        0  stm32f4xx_rcc.o(i.RCC_RTCCLKConfig)
    i.RTC_Bcd2ToByte                         0x08003678   Section        0  stm32f4xx_rtc.o(i.RTC_Bcd2ToByte)
    RTC_Bcd2ToByte                           0x08003679   Thumb Code    18  stm32f4xx_rtc.o(i.RTC_Bcd2ToByte)
    i.RTC_ByteToBcd2                         0x0800368a   Section        0  stm32f4xx_rtc.o(i.RTC_ByteToBcd2)
    RTC_ByteToBcd2                           0x0800368b   Thumb Code    24  stm32f4xx_rtc.o(i.RTC_ByteToBcd2)
    i.RTC_DeInit                             0x080036a4   Section        0  stm32f4xx_rtc.o(i.RTC_DeInit)
    i.RTC_EnterInitMode                      0x08003754   Section        0  stm32f4xx_rtc.o(i.RTC_EnterInitMode)
    i.RTC_ExitInitMode                       0x08003790   Section        0  stm32f4xx_rtc.o(i.RTC_ExitInitMode)
    i.RTC_GetDate                            0x080037a0   Section        0  stm32f4xx_rtc.o(i.RTC_GetDate)
    i.RTC_GetTime                            0x080037ec   Section        0  stm32f4xx_rtc.o(i.RTC_GetTime)
    i.RTC_Init                               0x0800383c   Section        0  stm32f4xx_rtc.o(i.RTC_Init)
    i.RTC_ReadBackupRegister                 0x0800388c   Section        0  stm32f4xx_rtc.o(i.RTC_ReadBackupRegister)
    i.RTC_SetDate                            0x080038a0   Section        0  stm32f4xx_rtc.o(i.RTC_SetDate)
    i.RTC_SetTime                            0x08003938   Section        0  stm32f4xx_rtc.o(i.RTC_SetTime)
    i.RTC_Set_Date                           0x080039d8   Section        0  rtc.o(i.RTC_Set_Date)
    i.RTC_Set_Time                           0x080039f4   Section        0  rtc.o(i.RTC_Set_Time)
    i.RTC_WaitForSynchro                     0x08003a10   Section        0  stm32f4xx_rtc.o(i.RTC_WaitForSynchro)
    i.RTC_WriteBackupRegister                0x08003a5c   Section        0  stm32f4xx_rtc.o(i.RTC_WriteBackupRegister)
    i.ReadHTSensorData                       0x08003a70   Section        0  ht_sensor.o(i.ReadHTSensorData)
    i.SPI1_Init                              0x08003b38   Section        0  nrf24l01.o(i.SPI1_Init)
    i.SPI1_ReadWriteByte                     0x08003bfc   Section        0  nrf24l01.o(i.SPI1_ReadWriteByte)
    i.SPI1_SetSpeed                          0x08003c30   Section        0  nrf24l01.o(i.SPI1_SetSpeed)
    i.SPI_Cmd                                0x08003c4c   Section        0  stm32f4xx_spi.o(i.SPI_Cmd)
    i.SPI_I2S_GetFlagStatus                  0x08003c60   Section        0  stm32f4xx_spi.o(i.SPI_I2S_GetFlagStatus)
    i.SPI_I2S_ReceiveData                    0x08003c6e   Section        0  stm32f4xx_spi.o(i.SPI_I2S_ReceiveData)
    i.SPI_I2S_SendData                       0x08003c72   Section        0  stm32f4xx_spi.o(i.SPI_I2S_SendData)
    i.SPI_Init                               0x08003c76   Section        0  stm32f4xx_spi.o(i.SPI_Init)
    i.SVC_Handler                            0x08003cae   Section        0  stm32f4xx_it.o(i.SVC_Handler)
    i.SYSCFG_EXTILineConfig                  0x08003cb0   Section        0  stm32f4xx_syscfg.o(i.SYSCFG_EXTILineConfig)
    i.SetSysClock                            0x08003ce0   Section        0  system_stm32f4xx.o(i.SetSysClock)
    SetSysClock                              0x08003ce1   Thumb Code   162  system_stm32f4xx.o(i.SetSysClock)
    i.Sizeofmsg                              0x08003d94   Section        0  uart.o(i.Sizeofmsg)
    i.SysTick_Handler                        0x08003dac   Section        0  stm32f4xx_it.o(i.SysTick_Handler)
    i.SystemInit                             0x08003dc0   Section        0  system_stm32f4xx.o(i.SystemInit)
    i.TIM5_IRQHandler                        0x08003e1c   Section        0  timer.o(i.TIM5_IRQHandler)
    i.TIM5_Init                              0x08003ed0   Section        0  timer.o(i.TIM5_Init)
    i.TIM_ARRPreloadConfig                   0x08003f34   Section        0  stm32f4xx_tim.o(i.TIM_ARRPreloadConfig)
    i.TIM_ClearITPendingBit                  0x08003f48   Section        0  stm32f4xx_tim.o(i.TIM_ClearITPendingBit)
    i.TIM_Cmd                                0x08003f4e   Section        0  stm32f4xx_tim.o(i.TIM_Cmd)
    i.TIM_CtrlPWMOutputs                     0x08003f62   Section        0  stm32f4xx_tim.o(i.TIM_CtrlPWMOutputs)
    i.TIM_GetITStatus                        0x08003f78   Section        0  stm32f4xx_tim.o(i.TIM_GetITStatus)
    i.TIM_ITConfig                           0x08003f90   Section        0  stm32f4xx_tim.o(i.TIM_ITConfig)
    i.TIM_OC2Init                            0x08003fa0   Section        0  stm32f4xx_tim.o(i.TIM_OC2Init)
    i.TIM_OC2PreloadConfig                   0x08004020   Section        0  stm32f4xx_tim.o(i.TIM_OC2PreloadConfig)
    i.TIM_OC3Init                            0x08004034   Section        0  stm32f4xx_tim.o(i.TIM_OC3Init)
    i.TIM_OC3PreloadConfig                   0x080040b0   Section        0  stm32f4xx_tim.o(i.TIM_OC3PreloadConfig)
    i.TIM_OC4Init                            0x080040bc   Section        0  stm32f4xx_tim.o(i.TIM_OC4Init)
    i.TIM_OC4PreloadConfig                   0x0800411c   Section        0  stm32f4xx_tim.o(i.TIM_OC4PreloadConfig)
    i.TIM_PrescalerConfig                    0x08004130   Section        0  stm32f4xx_tim.o(i.TIM_PrescalerConfig)
    i.TIM_SetCompare2                        0x08004136   Section        0  stm32f4xx_tim.o(i.TIM_SetCompare2)
    i.TIM_SetCompare3                        0x0800413a   Section        0  stm32f4xx_tim.o(i.TIM_SetCompare3)
    i.TIM_SetCompare4                        0x0800413e   Section        0  stm32f4xx_tim.o(i.TIM_SetCompare4)
    i.TIM_TimeBaseInit                       0x08004144   Section        0  stm32f4xx_tim.o(i.TIM_TimeBaseInit)
    i.UART1Init                              0x080041c0   Section        0  uart.o(i.UART1Init)
    i.UART1Poll                              0x08004284   Section        0  uart.o(i.UART1Poll)
    i.UART1_DMA_Init                         0x080042e0   Section        0  uart.o(i.UART1_DMA_Init)
    i.UART1_SentMsgL                         0x080043b8   Section        0  uart.o(i.UART1_SentMsgL)
    i.UART2Init                              0x08004420   Section        0  uart.o(i.UART2Init)
    i.UART2Poll                              0x080044e4   Section        0  uart.o(i.UART2Poll)
    i.UART2_DMA_Init                         0x08004568   Section        0  uart.o(i.UART2_DMA_Init)
    i.UART2_SentMsg                          0x0800463c   Section        0  uart.o(i.UART2_SentMsg)
    i.UART2_SentMsgL                         0x080046a4   Section        0  uart.o(i.UART2_SentMsgL)
    i.UART3Poll                              0x08004710   Section        0  uart.o(i.UART3Poll)
    i.UART4Init                              0x08004790   Section        0  uart.o(i.UART4Init)
    i.UART4Poll                              0x08004850   Section        0  uart.o(i.UART4Poll)
    i.UART4_DMA_Init                         0x080048dc   Section        0  uart.o(i.UART4_DMA_Init)
    i.UART4_SentMsgL                         0x080049b4   Section        0  uart.o(i.UART4_SentMsgL)
    i.USART_ClearFlag                        0x08004a1c   Section        0  stm32f4xx_usart.o(i.USART_ClearFlag)
    i.USART_Cmd                              0x08004a22   Section        0  stm32f4xx_usart.o(i.USART_Cmd)
    i.USART_DMACmd                           0x08004a36   Section        0  stm32f4xx_usart.o(i.USART_DMACmd)
    i.USART_GetFlagStatus                    0x08004a46   Section        0  stm32f4xx_usart.o(i.USART_GetFlagStatus)
    i.USART_Init                             0x08004a54   Section        0  stm32f4xx_usart.o(i.USART_Init)
    i.Uart1Read                              0x08004b00   Section        0  uart.o(i.Uart1Read)
    i.Uart2Read                              0x08004b88   Section        0  uart.o(i.Uart2Read)
    i.Uart3Read                              0x08004c0c   Section        0  uart.o(i.Uart3Read)
    i.Uart4Read                              0x08004c90   Section        0  uart.o(i.Uart4Read)
    i.UsageFault_Handler                     0x08004d18   Section        0  stm32f4xx_it.o(i.UsageFault_Handler)
    i.WifiStateCheck                         0x08004d1c   Section        0  wifi.o(i.WifiStateCheck)
    i.__ARM_fpclassify                       0x08004dd0   Section        0  fpclassify.o(i.__ARM_fpclassify)
    i.__hardfp_pow                           0x08004e00   Section        0  pow.o(i.__hardfp_pow)
    i.__kernel_poly                          0x08005a50   Section        0  poly.o(i.__kernel_poly)
    i.__mathlib_dbl_divzero                  0x08005b48   Section        0  dunder.o(i.__mathlib_dbl_divzero)
    i.__mathlib_dbl_infnan2                  0x08005b78   Section        0  dunder.o(i.__mathlib_dbl_infnan2)
    i.__mathlib_dbl_invalid                  0x08005b90   Section        0  dunder.o(i.__mathlib_dbl_invalid)
    i.__mathlib_dbl_overflow                 0x08005bb0   Section        0  dunder.o(i.__mathlib_dbl_overflow)
    i.__mathlib_dbl_underflow                0x08005bd0   Section        0  dunder.o(i.__mathlib_dbl_underflow)
    i._is_digit                              0x08005bf0   Section        0  __printf_wp.o(i._is_digit)
    i.ble_init                               0x08005c00   Section        0  bluetooth.o(i.ble_init)
    i.bluetooth_msg_porcess                  0x08005ca8   Section        0  bluetooth.o(i.bluetooth_msg_porcess)
    i.cJSON_Delete                           0x08005e34   Section        0  cjson.o(i.cJSON_Delete)
    i.cJSON_GetObjectItem                    0x08005e7c   Section        0  cjson.o(i.cJSON_GetObjectItem)
    i.cJSON_New_Item                         0x08005e98   Section        0  cjson.o(i.cJSON_New_Item)
    cJSON_New_Item                           0x08005e99   Thumb Code    24  cjson.o(i.cJSON_New_Item)
    i.cJSON_Parse                            0x08005eb4   Section        0  cjson.o(i.cJSON_Parse)
    i.cJSON_ParseWithOpts                    0x08005ebc   Section        0  cjson.o(i.cJSON_ParseWithOpts)
    i.cJSON_strcasecmp                       0x08005f1c   Section        0  cjson.o(i.cJSON_strcasecmp)
    cJSON_strcasecmp                         0x08005f1d   Thumb Code    66  cjson.o(i.cJSON_strcasecmp)
    i.connect_server                         0x08005f60   Section        0  wifi.o(i.connect_server)
    i.connect_wifi_network                   0x08005f94   Section        0  wifi.o(i.connect_wifi_network)
    i.delay_ms                               0x0800600c   Section        0  stm32f4xx_it.o(i.delay_ms)
    i.delay_us                               0x08006024   Section        0  stm32f4xx_it.o(i.delay_us)
    i.diag_cmd_compare                       0x08006034   Section        0  msg_deal.o(i.diag_cmd_compare)
    i.diag_cmd_complete                      0x0800606c   Section        0  msg_deal.o(i.diag_cmd_complete)
    i.diag_cmd_input                         0x0800607c   Section        0  msg_deal.o(i.diag_cmd_input)
    i.diag_cmd_para_parse                    0x08006194   Section        0  msg_deal.o(i.diag_cmd_para_parse)
    i.diag_cmd_process                       0x080062c0   Section        0  msg_deal.o(i.diag_cmd_process)
    i.diag_cmd_start                         0x0800641c   Section        0  msg_deal.o(i.diag_cmd_start)
    i.diag_help                              0x08006434   Section        0  msg_deal.o(i.diag_help)
    i.entry_send_state                       0x0800645c   Section        0  wifi.o(i.entry_send_state)
    i.fabs                                   0x08006490   Section        0  fabs.o(i.fabs)
    i.find_cmd                               0x080064a8   Section        0  msg_deal.o(i.find_cmd)
    i.get_data_str_index                     0x08006558   Section        0  wifi.o(i.get_data_str_index)
    i.get_network_time_cmds                  0x08006590   Section        0  wifi.o(i.get_network_time_cmds)
    i.get_wifi_info_data                     0x080065c8   Section        0  wifi.o(i.get_wifi_info_data)
    i.init_wifi_network                      0x080066dc   Section        0  wifi.o(i.init_wifi_network)
    i.main                                   0x080067b4   Section        0  main.o(i.main)
    i.nrf_communication_service_msg_process  0x0800685c   Section        0  nrf24l01.o(i.nrf_communication_service_msg_process)
    i.paraing_time_string                    0x08006940   Section        0  wifi.o(i.paraing_time_string)
    i.parse_array                            0x08006a00   Section        0  cjson.o(i.parse_array)
    parse_array                              0x08006a01   Thumb Code   130  cjson.o(i.parse_array)
    i.parse_hex4                             0x08006a88   Section        0  cjson.o(i.parse_hex4)
    parse_hex4                               0x08006a89   Thumb Code   166  cjson.o(i.parse_hex4)
    i.parse_number                           0x08006b30   Section        0  cjson.o(i.parse_number)
    parse_number                             0x08006b31   Thumb Code   362  cjson.o(i.parse_number)
    i.parse_object                           0x08006cbc   Section        0  cjson.o(i.parse_object)
    parse_object                             0x08006cbd   Thumb Code   176  cjson.o(i.parse_object)
    i.parse_string                           0x08006d70   Section        0  cjson.o(i.parse_string)
    parse_string                             0x08006d71   Thumb Code   340  cjson.o(i.parse_string)
    i.parse_value                            0x08006ecc   Section        0  cjson.o(i.parse_value)
    parse_value                              0x08006ecd   Thumb Code   152  cjson.o(i.parse_value)
    i.parsing_the_str                        0x08006f80   Section        0  wifi.o(i.parsing_the_str)
    i.parsing_time_json_info                 0x08006fac   Section        0  wifi.o(i.parsing_time_json_info)
    i.parsing_weather_json_info              0x0800711c   Section        0  wifi.o(i.parsing_weather_json_info)
    i.parsing_wifi_mac_data                  0x08007350   Section        0  wifi.o(i.parsing_wifi_mac_data)
    i.parsing_wifi_signal_info               0x080073b8   Section        0  wifi.o(i.parsing_wifi_signal_info)
    i.periodic_task_process                  0x08007420   Section        0  msg_deal.o(i.periodic_task_process)
    i.print_weather_and_time_info            0x08007460   Section        0  msg_deal.o(i.print_weather_and_time_info)
    i.print_wifi_weather_time_info           0x080074b8   Section        0  wifi.o(i.print_wifi_weather_time_info)
    i.queue_in                               0x0800762c   Section        0  queue.o(i.queue_in)
    i.queue_init                             0x08007680   Section        0  queue.o(i.queue_init)
    i.queue_out                              0x0800768a   Section        0  queue.o(i.queue_out)
    i.quiry_wifi                             0x080076e8   Section        0  wifi.o(i.quiry_wifi)
    i.quit_network_connect_cmd               0x0800771c   Section        0  wifi.o(i.quit_network_connect_cmd)
    i.quit_send_data_mode_cmd                0x08007750   Section        0  wifi.o(i.quit_send_data_mode_cmd)
    i.rt_hw_console_output                   0x08007784   Section        0  uart.o(i.rt_hw_console_output)
    i.rt_kprintf                             0x08007788   Section        0  uart.o(i.rt_kprintf)
    i.rt_kprintf2                            0x080077bc   Section        0  uart.o(i.rt_kprintf2)
    i.send_data                              0x080077dc   Section        0  wifi.o(i.send_data)
    i.send_weather_data                      0x08007810   Section        0  wifi.o(i.send_weather_data)
    i.set_send_mode                          0x08007844   Section        0  wifi.o(i.set_send_mode)
    i.shell_init                             0x08007888   Section        0  msg_deal.o(i.shell_init)
    i.shell_process                          0x080078a0   Section        0  msg_deal.o(i.shell_process)
    i.show_common_string                     0x080078e0   Section        0  oled.o(i.show_common_string)
    i.show_date_str                          0x08007938   Section        0  oled.o(i.show_date_str)
    i.show_interface_oled                    0x080079dc   Section        0  show.o(i.show_interface_oled)
    i.show_line                              0x08007dd0   Section        0  oled.o(i.show_line)
    i.show_oled_char                         0x08007e14   Section        0  oled.o(i.show_oled_char)
    i.show_t_rh_string                       0x08007fd0   Section        0  oled.o(i.show_t_rh_string)
    i.show_time_str                          0x08008026   Section        0  oled.o(i.show_time_str)
    i.skip                                   0x0800805a   Section        0  cjson.o(i.skip)
    skip                                     0x0800805b   Thumb Code    20  cjson.o(i.skip)
    i.sqrt                                   0x0800806e   Section        0  sqrt.o(i.sqrt)
    i.test2                                  0x080080dc   Section        0  msg_deal.o(i.test2)
    i.test3                                  0x080080fc   Section        0  msg_deal.o(i.test3)
    i.wifi_bmp_clear                         0x08008128   Section        0  show.o(i.wifi_bmp_clear)
    i.wifi_msg_process                       0x08008150   Section        0  wifi.o(i.wifi_msg_process)
    locale$$code                             0x0800832c   Section       44  lc_ctype_c.o(locale$$code)
    locale$$code                             0x08008358   Section       44  lc_numeric_c.o(locale$$code)
    x$fpl$basic                              0x08008384   Section       24  basic.o(x$fpl$basic)
    $v0                                      0x08008384   Number         0  basic.o(x$fpl$basic)
    x$fpl$dadd                               0x0800839c   Section      336  daddsub_clz.o(x$fpl$dadd)
    $v0                                      0x0800839c   Number         0  daddsub_clz.o(x$fpl$dadd)
    _dadd1                                   0x080083ad   Thumb Code     0  daddsub_clz.o(x$fpl$dadd)
    x$fpl$dcheck1                            0x080084ec   Section       16  dcheck1.o(x$fpl$dcheck1)
    $v0                                      0x080084ec   Number         0  dcheck1.o(x$fpl$dcheck1)
    x$fpl$dcmpinf                            0x080084fc   Section       24  dcmpi.o(x$fpl$dcmpinf)
    $v0                                      0x080084fc   Number         0  dcmpi.o(x$fpl$dcmpinf)
    x$fpl$ddiv                               0x08008514   Section      688  ddiv.o(x$fpl$ddiv)
    $v0                                      0x08008514   Number         0  ddiv.o(x$fpl$ddiv)
    ddiv_entry                               0x0800851b   Thumb Code     0  ddiv.o(x$fpl$ddiv)
    x$fpl$dfix                               0x080087c4   Section       94  dfix.o(x$fpl$dfix)
    $v0                                      0x080087c4   Number         0  dfix.o(x$fpl$dfix)
    x$fpl$dflt                               0x08008822   Section       46  dflt_clz.o(x$fpl$dflt)
    $v0                                      0x08008822   Number         0  dflt_clz.o(x$fpl$dflt)
    x$fpl$dleqf                              0x08008850   Section      120  dleqf.o(x$fpl$dleqf)
    $v0                                      0x08008850   Number         0  dleqf.o(x$fpl$dleqf)
    x$fpl$dmul                               0x080088c8   Section      340  dmul.o(x$fpl$dmul)
    $v0                                      0x080088c8   Number         0  dmul.o(x$fpl$dmul)
    x$fpl$dnaninf                            0x08008a1c   Section      156  dnaninf.o(x$fpl$dnaninf)
    $v0                                      0x08008a1c   Number         0  dnaninf.o(x$fpl$dnaninf)
    x$fpl$dretinf                            0x08008ab8   Section       12  dretinf.o(x$fpl$dretinf)
    $v0                                      0x08008ab8   Number         0  dretinf.o(x$fpl$dretinf)
    x$fpl$drleqf                             0x08008ac4   Section      108  drleqf.o(x$fpl$drleqf)
    $v0                                      0x08008ac4   Number         0  drleqf.o(x$fpl$drleqf)
    x$fpl$drsb                               0x08008b30   Section       22  daddsub_clz.o(x$fpl$drsb)
    $v0                                      0x08008b30   Number         0  daddsub_clz.o(x$fpl$drsb)
    x$fpl$dsqrt                              0x08008b48   Section      408  dsqrt_umaal.o(x$fpl$dsqrt)
    $v0                                      0x08008b48   Number         0  dsqrt_umaal.o(x$fpl$dsqrt)
    x$fpl$dsub                               0x08008ce0   Section      468  daddsub_clz.o(x$fpl$dsub)
    $v0                                      0x08008ce0   Number         0  daddsub_clz.o(x$fpl$dsub)
    _dsub1                                   0x08008cf1   Thumb Code     0  daddsub_clz.o(x$fpl$dsub)
    x$fpl$fpinit                             0x08008eb4   Section       10  fpinit.o(x$fpl$fpinit)
    $v0                                      0x08008eb4   Number         0  fpinit.o(x$fpl$fpinit)
    x$fpl$printf1                            0x08008ebe   Section        4  printf1.o(x$fpl$printf1)
    $v0                                      0x08008ebe   Number         0  printf1.o(x$fpl$printf1)
    x$fpl$printf2                            0x08008ec2   Section        4  printf2.o(x$fpl$printf2)
    $v0                                      0x08008ec2   Number         0  printf2.o(x$fpl$printf2)
    x$fpl$retnan                             0x08008ec6   Section      100  retnan.o(x$fpl$retnan)
    $v0                                      0x08008ec6   Number         0  retnan.o(x$fpl$retnan)
    x$fpl$scalbn                             0x08008f2a   Section       92  scalbn.o(x$fpl$scalbn)
    $v0                                      0x08008f2a   Number         0  scalbn.o(x$fpl$scalbn)
    x$fpl$trapveneer                         0x08008f86   Section       48  trapv.o(x$fpl$trapveneer)
    $v0                                      0x08008f86   Number         0  trapv.o(x$fpl$trapveneer)
    x$fpl$usenofp                            0x08008fb6   Section        0  usenofp.o(x$fpl$usenofp)
    .constdata                               0x08008fb8   Section       32  main.o(.constdata)
    .constdata                               0x08008fd8   Section       10  nrf24l01.o(.constdata)
    .constdata                               0x08008fe2   Section        7  cjson.o(.constdata)
    firstByteMark                            0x08008fe2   Data           7  cjson.o(.constdata)
    .constdata                               0x08008fe9   Section      552  oledfont.o(.constdata)
    .constdata                               0x08009211   Section      352  oledfont.o(.constdata)
    .constdata                               0x08009371   Section     1520  oledfont.o(.constdata)
    .constdata                               0x08009961   Section       40  _printf_hex_int_ll_ptr.o(.constdata)
    uc_hextab                                0x08009961   Data          20  _printf_hex_int_ll_ptr.o(.constdata)
    lc_hextab                                0x08009975   Data          20  _printf_hex_int_ll_ptr.o(.constdata)
    .constdata                               0x08009989   Section       17  __printf_flags_ss_wp.o(.constdata)
    maptable                                 0x08009989   Data          17  __printf_flags_ss_wp.o(.constdata)
    .constdata                               0x080099a0   Section      136  pow.o(.constdata)
    bp                                       0x080099a0   Data          16  pow.o(.constdata)
    dp_h                                     0x080099b0   Data          16  pow.o(.constdata)
    dp_l                                     0x080099c0   Data          16  pow.o(.constdata)
    L                                        0x080099d0   Data          48  pow.o(.constdata)
    P                                        0x08009a00   Data          40  pow.o(.constdata)
    .constdata                               0x08009a28   Section        8  _printf_wctomb.o(.constdata)
    initial_mbstate                          0x08009a28   Data           8  _printf_wctomb.o(.constdata)
    .constdata                               0x08009a30   Section        8  qnan.o(.constdata)
    .constdata                               0x08009a38   Section       38  _printf_fp_hex.o(.constdata)
    lc_hextab                                0x08009a38   Data          19  _printf_fp_hex.o(.constdata)
    uc_hextab                                0x08009a4b   Data          19  _printf_fp_hex.o(.constdata)
    .constdata                               0x08009a60   Section      148  bigflt0.o(.constdata)
    tenpwrs_x                                0x08009a60   Data          60  bigflt0.o(.constdata)
    tenpwrs_i                                0x08009a9c   Data          64  bigflt0.o(.constdata)
    .conststring                             0x08009af4   Section      331  msg_deal.o(.conststring)
    locale$$data                             0x08009c60   Section      272  lc_ctype_c.o(locale$$data)
    __lcctype_c_name                         0x08009c64   Data           2  lc_ctype_c.o(locale$$data)
    __lcctype_c_start                        0x08009c6c   Data           0  lc_ctype_c.o(locale$$data)
    locale$$data                             0x08009d70   Section       28  lc_numeric_c.o(locale$$data)
    __lcctype_c_end                          0x08009d70   Data           0  lc_ctype_c.o(locale$$data)
    __lcnum_c_name                           0x08009d74   Data           2  lc_numeric_c.o(locale$$data)
    __lcnum_c_start                          0x08009d7c   Data           0  lc_numeric_c.o(locale$$data)
    __lcnum_c_point                          0x08009d88   Data           0  lc_numeric_c.o(locale$$data)
    __lcnum_c_thousands                      0x08009d8a   Data           0  lc_numeric_c.o(locale$$data)
    __lcnum_c_grouping                       0x08009d8b   Data           0  lc_numeric_c.o(locale$$data)
    __lcnum_c_end                            0x08009d8c   Data           0  lc_numeric_c.o(locale$$data)
    .data                                    0x20000000   Section       16  stm32f4xx_rcc.o(.data)
    APBAHBPrescTable                         0x20000000   Data          16  stm32f4xx_rcc.o(.data)
    .data                                    0x20000010   Section        4  stm32f4xx_it.o(.data)
    .data                                    0x20000014   Section       20  system_stm32f4xx.o(.data)
    .data                                    0x20000028   Section        4  led.o(.data)
    LEDCount                                 0x20000028   Data           1  led.o(.data)
    DirFlag                                  0x20000029   Data           1  led.o(.data)
    LEDCount                                 0x2000002a   Data           2  led.o(.data)
    .data                                    0x2000002c   Section    16448  uart.o(.data)
    Uart1RcvStartFlag                        0x2000002d   Data           1  uart.o(.data)
    Uart2RcvStartFlag                        0x2000002f   Data           1  uart.o(.data)
    Uart1DmaLastCnt                          0x20000036   Data           2  uart.o(.data)
    Uart1DmaStartCnt                         0x20000038   Data           2  uart.o(.data)
    Uart2DmaLastCnt                          0x2000003c   Data           2  uart.o(.data)
    Uart2DmaStartCnt                         0x2000003e   Data           2  uart.o(.data)
    Uart3DmaLastCnt                          0x20000042   Data           2  uart.o(.data)
    Uart3DmaStartCnt                         0x20000044   Data           2  uart.o(.data)
    Uart4DmaLastCnt                          0x20000048   Data           2  uart.o(.data)
    Uart4DmaStartCnt                         0x2000004a   Data           2  uart.o(.data)
    Uart1DataInTime                          0x2000004c   Data           4  uart.o(.data)
    Uart1DataCurrTime                        0x20000050   Data           4  uart.o(.data)
    Uart2DataInTime                          0x20000054   Data           4  uart.o(.data)
    Uart2DataCurrTime                        0x20000058   Data           4  uart.o(.data)
    Uart3DataInTime                          0x2000005c   Data           4  uart.o(.data)
    Uart3DataCurrTime                        0x20000060   Data           4  uart.o(.data)
    Uart4DataInTime                          0x20000064   Data           4  uart.o(.data)
    Uart4DataCurrTime                        0x20000068   Data           4  uart.o(.data)
    .data                                    0x2000406c   Section        2  uart.o(.data)
    .data                                    0x20004070   Section        8  key.o(.data)
    .data                                    0x20004078   Section       12  cjson.o(.data)
    cJSON_malloc                             0x20004078   Data           4  cjson.o(.data)
    cJSON_free                               0x2000407c   Data           4  cjson.o(.data)
    ep                                       0x20004080   Data           4  cjson.o(.data)
    .data                                    0x20004084   Section       96  bluetooth.o(.data)
    .data                                    0x200040e4   Section     1724  wifi.o(.data)
    .data                                    0x200047a0   Section        4  timer.o(.data)
    .data                                    0x200047a4   Section      512  bmp.o(.data)
    .data                                    0x200049a4   Section      252  bmp.o(.data)
    .data                                    0x20004aa0   Section       22  oledfont.o(.data)
    .data                                    0x20004ab6   Section       32  oledfont.o(.data)
    .data                                    0x20004ad6   Section       16  oledfont.o(.data)
    .data                                    0x20004ae6   Section        8  oledfont.o(.data)
    .data                                    0x20004aee   Section      176  oledfont.o(.data)
    .data                                    0x20004b9e   Section      128  oledfont.o(.data)
    .data                                    0x20004c1e   Section       32  oledfont.o(.data)
    .data                                    0x20004c40   Section      144  msg_deal.o(.data)
    .data                                    0x20004cd0   Section        8  show.o(.data)
    index                                    0x20004cd1   Data           1  show.o(.data)
    temp_sys_time                            0x20004cd4   Data           4  show.o(.data)
    .bss                                     0x20004cd8   Section     4096  uart.o(.bss)
    .bss                                     0x20005cd8   Section    20864  uart.o(.bss)
    rt_log_buf                               0x20005cd8   Data        4096  uart.o(.bss)
    rt_log_buf2                              0x20006cd8   Data         128  uart.o(.bss)
    rt_log_buf3                              0x20006d58   Data         128  uart.o(.bss)
    rt_log_buf4                              0x20006dd8   Data         128  uart.o(.bss)
    .bss                                     0x2000ae58   Section      264  queue.o(.bss)
    .bss                                     0x2000af60   Section      264  queue.o(.bss)
    .bss                                     0x2000b068   Section     4228  queue.o(.bss)
    .bss                                     0x2000c0ec   Section      264  queue.o(.bss)
    .bss                                     0x2000c1f4   Section      264  queue.o(.bss)
    .bss                                     0x2000c2fc   Section     4228  queue.o(.bss)
    .bss                                     0x2000d380   Section     8200  queue.o(.bss)
    .bss                                     0x2000f388   Section     8200  queue.o(.bss)
    .bss                                     0x20011390   Section     8200  queue.o(.bss)
    .bss                                     0x20013398   Section     8200  queue.o(.bss)
    .bss                                     0x200153a0   Section     8200  queue.o(.bss)
    .bss                                     0x200173a8   Section       64  nrf24l01.o(.bss)
    .bss                                     0x200173e8   Section      176  wifi.o(.bss)
    .bss                                     0x20017498   Section       80  msg_deal.o(.bss)
    .bss                                     0x200174e8   Section       12  msg_deal.o(.bss)
    .bss                                     0x200174f4   Section       20  show.o(.bss)
    fresh_once_flag                          0x200174f4   Data          10  show.o(.bss)
    fresh_once_flag_last                     0x200174fe   Data          10  show.o(.bss)
    .bss                                     0x20017508   Section       96  libspace.o(.bss)
    HEAP                                     0x20017568   Section     4096  startup_stm32f40_41xxx.o(HEAP)
    Heap_Mem                                 0x20017568   Data        4096  startup_stm32f40_41xxx.o(HEAP)
    STACK                                    0x20018568   Section     8192  startup_stm32f40_41xxx.o(STACK)
    Stack_Mem                                0x20018568   Data        8192  startup_stm32f40_41xxx.o(STACK)
    __initial_sp                             0x2001a568   Data           0  startup_stm32f40_41xxx.o(STACK)

    Global Symbols

    Symbol Name                              Value     Ov Type        Size  Object(Section)

    BuildAttributes$$THM_ISAv4$E$P$D$K$B$S$7EM$VFPi3$EXTD16$VFPS$VFMA$PE$A:L22UL41UL21$X:L11$S22US41US21$IEEE1$IW$USESV6$~STKCKD$USESV7$~SHL$OTIME$ROPI$IEEEX$EBA8$UX$STANDARDLIB$REQ8$PRES8$EABIv2 0x00000000   Number         0  anon$$obj.o ABSOLUTE
    __ARM_use_no_argv                        0x00000000   Number         0  main.o ABSOLUTE
    _printf_flags                            0x00000000   Number         0  printf_stubs.o ABSOLUTE
    _printf_return_value                     0x00000000   Number         0  printf_stubs.o ABSOLUTE
    _printf_sizespec                         0x00000000   Number         0  printf_stubs.o ABSOLUTE
    _printf_widthprec                        0x00000000   Number         0  printf_stubs.o ABSOLUTE
    __ARM_exceptions_init                     - Undefined Weak Reference
    __alloca_initialize                       - Undefined Weak Reference
    __arm_fini_                               - Undefined Weak Reference
    __arm_preinit_                            - Undefined Weak Reference
    __cpp_initialize__aeabi_                  - Undefined Weak Reference
    __cxa_finalize                            - Undefined Weak Reference
    __sigvec_lookup                           - Undefined Weak Reference
    __user_heap_extent                        - Undefined Weak Reference
    _atexit_init                              - Undefined Weak Reference
    _call_atexit_fns                          - Undefined Weak Reference
    _clock_init                               - Undefined Weak Reference
    _fp_trap_init                             - Undefined Weak Reference
    _fp_trap_shutdown                         - Undefined Weak Reference
    _get_lc_collate                           - Undefined Weak Reference
    _get_lc_monetary                          - Undefined Weak Reference
    _get_lc_time                              - Undefined Weak Reference
    _getenv_init                              - Undefined Weak Reference
    _handle_redirection                       - Undefined Weak Reference
    _initio                                   - Undefined Weak Reference
    _mutex_acquire                            - Undefined Weak Reference
    _mutex_free                               - Undefined Weak Reference
    _mutex_release                            - Undefined Weak Reference
    _printf_mbtowc                            - Undefined Weak Reference
    _printf_wc                                - Undefined Weak Reference
    _rand_init                                - Undefined Weak Reference
    _signal_finish                            - Undefined Weak Reference
    _signal_init                              - Undefined Weak Reference
    _terminateio                              - Undefined Weak Reference
    __Vectors_Size                           0x00000188   Number         0  startup_stm32f40_41xxx.o ABSOLUTE
    __Vectors                                0x08000000   Data           4  startup_stm32f40_41xxx.o(RESET)
    __Vectors_End                            0x08000188   Data           0  startup_stm32f40_41xxx.o(RESET)
    __main                                   0x08000189   Thumb Code     8  __main.o(!!!main)
    __scatterload                            0x08000191   Thumb Code     0  __scatter.o(!!!scatter)
    __scatterload_rt2                        0x08000191   Thumb Code    44  __scatter.o(!!!scatter)
    __scatterload_rt2_thumb_only             0x08000191   Thumb Code     0  __scatter.o(!!!scatter)
    __scatterload_null                       0x0800019f   Thumb Code     0  __scatter.o(!!!scatter)
    __decompress                             0x080001c5   Thumb Code    90  __dczerorl2.o(!!dczerorl2)
    __decompress1                            0x080001c5   Thumb Code     0  __dczerorl2.o(!!dczerorl2)
    __scatterload_zeroinit                   0x08000221   Thumb Code    28  __scatter_zi.o(!!handler_zi)
    _printf_n                                0x0800023d   Thumb Code     0  _printf_n.o(.ARM.Collect$$_printf_percent$$00000001)
    _printf_percent                          0x0800023d   Thumb Code     0  _printf_percent.o(.ARM.Collect$$_printf_percent$$00000000)
    _printf_p                                0x08000243   Thumb Code     0  _printf_p.o(.ARM.Collect$$_printf_percent$$00000002)
    _printf_f                                0x08000249   Thumb Code     0  _printf_f.o(.ARM.Collect$$_printf_percent$$00000003)
    _printf_e                                0x0800024f   Thumb Code     0  _printf_e.o(.ARM.Collect$$_printf_percent$$00000004)
    _printf_g                                0x08000255   Thumb Code     0  _printf_g.o(.ARM.Collect$$_printf_percent$$00000005)
    _printf_a                                0x0800025b   Thumb Code     0  _printf_a.o(.ARM.Collect$$_printf_percent$$00000006)
    _printf_ll                               0x08000261   Thumb Code     0  _printf_ll.o(.ARM.Collect$$_printf_percent$$00000007)
    _printf_i                                0x0800026b   Thumb Code     0  _printf_i.o(.ARM.Collect$$_printf_percent$$00000008)
    _printf_d                                0x08000271   Thumb Code     0  _printf_d.o(.ARM.Collect$$_printf_percent$$00000009)
    _printf_u                                0x08000277   Thumb Code     0  _printf_u.o(.ARM.Collect$$_printf_percent$$0000000A)
    _printf_o                                0x0800027d   Thumb Code     0  _printf_o.o(.ARM.Collect$$_printf_percent$$0000000B)
    _printf_x                                0x08000283   Thumb Code     0  _printf_x.o(.ARM.Collect$$_printf_percent$$0000000C)
    _printf_lli                              0x08000289   Thumb Code     0  _printf_lli.o(.ARM.Collect$$_printf_percent$$0000000D)
    _printf_lld                              0x0800028f   Thumb Code     0  _printf_lld.o(.ARM.Collect$$_printf_percent$$0000000E)
    _printf_llu                              0x08000295   Thumb Code     0  _printf_llu.o(.ARM.Collect$$_printf_percent$$0000000F)
    _printf_llo                              0x0800029b   Thumb Code     0  _printf_llo.o(.ARM.Collect$$_printf_percent$$00000010)
    _printf_llx                              0x080002a1   Thumb Code     0  _printf_llx.o(.ARM.Collect$$_printf_percent$$00000011)
    _printf_l                                0x080002a7   Thumb Code     0  _printf_l.o(.ARM.Collect$$_printf_percent$$00000012)
    _printf_c                                0x080002b1   Thumb Code     0  _printf_c.o(.ARM.Collect$$_printf_percent$$00000013)
    _printf_s                                0x080002b7   Thumb Code     0  _printf_s.o(.ARM.Collect$$_printf_percent$$00000014)
    _printf_lc                               0x080002bd   Thumb Code     0  _printf_lc.o(.ARM.Collect$$_printf_percent$$00000015)
    _printf_ls                               0x080002c3   Thumb Code     0  _printf_ls.o(.ARM.Collect$$_printf_percent$$00000016)
    _printf_percent_end                      0x080002c9   Thumb Code     0  _printf_percent_end.o(.ARM.Collect$$_printf_percent$$00000017)
    __rt_lib_init                            0x080002cd   Thumb Code     0  libinit.o(.ARM.Collect$$libinit$$00000000)
    __rt_lib_init_fp_1                       0x080002cf   Thumb Code     0  libinit2.o(.ARM.Collect$$libinit$$00000001)
    __rt_lib_init_heap_2                     0x080002d3   Thumb Code     0  libinit2.o(.ARM.Collect$$libinit$$00000005)
    __rt_lib_init_preinit_1                  0x080002d3   Thumb Code     0  libinit2.o(.ARM.Collect$$libinit$$00000004)
    __rt_lib_init_heap_1                     0x080002db   Thumb Code     0  libinit2.o(.ARM.Collect$$libinit$$0000000A)
    __rt_lib_init_lc_common                  0x080002db   Thumb Code     0  libinit2.o(.ARM.Collect$$libinit$$0000000F)
    __rt_lib_init_rand_1                     0x080002db   Thumb Code     0  libinit2.o(.ARM.Collect$$libinit$$0000000E)
    __rt_lib_init_user_alloc_1               0x080002db   Thumb Code     0  libinit2.o(.ARM.Collect$$libinit$$0000000C)
    __rt_lib_init_lc_collate_1               0x080002e1   Thumb Code     0  libinit2.o(.ARM.Collect$$libinit$$00000011)
    __rt_lib_init_lc_ctype_2                 0x080002e1   Thumb Code     0  libinit2.o(.ARM.Collect$$libinit$$00000012)
    __rt_lib_init_lc_ctype_1                 0x080002ed   Thumb Code     0  libinit2.o(.ARM.Collect$$libinit$$00000013)
    __rt_lib_init_lc_monetary_1              0x080002ed   Thumb Code     0  libinit2.o(.ARM.Collect$$libinit$$00000015)
    __rt_lib_init_lc_numeric_2               0x080002ed   Thumb Code     0  libinit2.o(.ARM.Collect$$libinit$$00000016)
    __rt_lib_init_alloca_1                   0x080002f7   Thumb Code     0  libinit2.o(.ARM.Collect$$libinit$$0000002E)
    __rt_lib_init_argv_1                     0x080002f7   Thumb Code     0  libinit2.o(.ARM.Collect$$libinit$$0000002C)
    __rt_lib_init_atexit_1                   0x080002f7   Thumb Code     0  libinit2.o(.ARM.Collect$$libinit$$0000001B)
    __rt_lib_init_clock_1                    0x080002f7   Thumb Code     0  libinit2.o(.ARM.Collect$$libinit$$00000021)
    __rt_lib_init_cpp_1                      0x080002f7   Thumb Code     0  libinit2.o(.ARM.Collect$$libinit$$00000032)
    __rt_lib_init_exceptions_1               0x080002f7   Thumb Code     0  libinit2.o(.ARM.Collect$$libinit$$00000030)
    __rt_lib_init_fp_trap_1                  0x080002f7   Thumb Code     0  libinit2.o(.ARM.Collect$$libinit$$0000001F)
    __rt_lib_init_getenv_1                   0x080002f7   Thumb Code     0  libinit2.o(.ARM.Collect$$libinit$$00000023)
    __rt_lib_init_lc_numeric_1               0x080002f7   Thumb Code     0  libinit2.o(.ARM.Collect$$libinit$$00000017)
    __rt_lib_init_lc_time_1                  0x080002f7   Thumb Code     0  libinit2.o(.ARM.Collect$$libinit$$00000019)
    __rt_lib_init_return                     0x080002f7   Thumb Code     0  libinit2.o(.ARM.Collect$$libinit$$00000033)
    __rt_lib_init_signal_1                   0x080002f7   Thumb Code     0  libinit2.o(.ARM.Collect$$libinit$$0000001D)
    __rt_lib_init_stdio_1                    0x080002f7   Thumb Code     0  libinit2.o(.ARM.Collect$$libinit$$00000025)
    __rt_lib_shutdown                        0x080002f9   Thumb Code     0  libshutdown.o(.ARM.Collect$$libshutdown$$00000000)
    __rt_lib_shutdown_cpp_1                  0x080002fb   Thumb Code     0  libshutdown2.o(.ARM.Collect$$libshutdown$$00000004)
    __rt_lib_shutdown_fini_1                 0x080002fb   Thumb Code     0  libshutdown2.o(.ARM.Collect$$libshutdown$$00000002)
    __rt_lib_shutdown_fp_trap_1              0x080002fb   Thumb Code     0  libshutdown2.o(.ARM.Collect$$libshutdown$$00000009)
    __rt_lib_shutdown_heap_1                 0x080002fb   Thumb Code     0  libshutdown2.o(.ARM.Collect$$libshutdown$$00000011)
    __rt_lib_shutdown_return                 0x080002fb   Thumb Code     0  libshutdown2.o(.ARM.Collect$$libshutdown$$00000012)
    __rt_lib_shutdown_signal_1               0x080002fb   Thumb Code     0  libshutdown2.o(.ARM.Collect$$libshutdown$$0000000C)
    __rt_lib_shutdown_stdio_1                0x080002fb   Thumb Code     0  libshutdown2.o(.ARM.Collect$$libshutdown$$00000006)
    __rt_lib_shutdown_user_alloc_1           0x080002fb   Thumb Code     0  libshutdown2.o(.ARM.Collect$$libshutdown$$0000000E)
    __rt_entry                               0x080002fd   Thumb Code     0  __rtentry.o(.ARM.Collect$$rtentry$$00000000)
    __rt_entry_presh_1                       0x080002fd   Thumb Code     0  __rtentry2.o(.ARM.Collect$$rtentry$$00000002)
    __rt_entry_sh                            0x080002fd   Thumb Code     0  __rtentry4.o(.ARM.Collect$$rtentry$$00000004)
    __rt_entry_li                            0x08000303   Thumb Code     0  __rtentry2.o(.ARM.Collect$$rtentry$$0000000A)
    __rt_entry_postsh_1                      0x08000303   Thumb Code     0  __rtentry2.o(.ARM.Collect$$rtentry$$00000009)
    __rt_entry_main                          0x08000307   Thumb Code     0  __rtentry2.o(.ARM.Collect$$rtentry$$0000000D)
    __rt_entry_postli_1                      0x08000307   Thumb Code     0  __rtentry2.o(.ARM.Collect$$rtentry$$0000000C)
    __rt_exit                                0x0800030f   Thumb Code     0  rtexit.o(.ARM.Collect$$rtexit$$00000000)
    __rt_exit_ls                             0x08000311   Thumb Code     0  rtexit2.o(.ARM.Collect$$rtexit$$00000003)
    __rt_exit_prels_1                        0x08000311   Thumb Code     0  rtexit2.o(.ARM.Collect$$rtexit$$00000002)
    __rt_exit_exit                           0x08000315   Thumb Code     0  rtexit2.o(.ARM.Collect$$rtexit$$00000004)
    Reset_Handler                            0x0800031d   Thumb Code     8  startup_stm32f40_41xxx.o(.text)
    _maybe_terminate_alloc                   0x0800031d   Thumb Code     0  maybetermalloc1.o(.emb_text)
    ADC_IRQHandler                           0x08000337   Thumb Code     0  startup_stm32f40_41xxx.o(.text)
    CAN1_RX0_IRQHandler                      0x08000337   Thumb Code     0  startup_stm32f40_41xxx.o(.text)
    CAN1_RX1_IRQHandler                      0x08000337   Thumb Code     0  startup_stm32f40_41xxx.o(.text)
    CAN1_SCE_IRQHandler                      0x08000337   Thumb Code     0  startup_stm32f40_41xxx.o(.text)
    CAN1_TX_IRQHandler                       0x08000337   Thumb Code     0  startup_stm32f40_41xxx.o(.text)
    CAN2_RX0_IRQHandler                      0x08000337   Thumb Code     0  startup_stm32f40_41xxx.o(.text)
    CAN2_RX1_IRQHandler                      0x08000337   Thumb Code     0  startup_stm32f40_41xxx.o(.text)
    CAN2_SCE_IRQHandler                      0x08000337   Thumb Code     0  startup_stm32f40_41xxx.o(.text)
    CAN2_TX_IRQHandler                       0x08000337   Thumb Code     0  startup_stm32f40_41xxx.o(.text)
    CRYP_IRQHandler                          0x08000337   Thumb Code     0  startup_stm32f40_41xxx.o(.text)
    DCMI_IRQHandler                          0x08000337   Thumb Code     0  startup_stm32f40_41xxx.o(.text)
    DMA1_Stream0_IRQHandler                  0x08000337   Thumb Code     0  startup_stm32f40_41xxx.o(.text)
    DMA1_Stream1_IRQHandler                  0x08000337   Thumb Code     0  startup_stm32f40_41xxx.o(.text)
    DMA1_Stream2_IRQHandler                  0x08000337   Thumb Code     0  startup_stm32f40_41xxx.o(.text)
    DMA1_Stream3_IRQHandler                  0x08000337   Thumb Code     0  startup_stm32f40_41xxx.o(.text)
    DMA1_Stream4_IRQHandler                  0x08000337   Thumb Code     0  startup_stm32f40_41xxx.o(.text)
    DMA1_Stream5_IRQHandler                  0x08000337   Thumb Code     0  startup_stm32f40_41xxx.o(.text)
    DMA1_Stream6_IRQHandler                  0x08000337   Thumb Code     0  startup_stm32f40_41xxx.o(.text)
    DMA1_Stream7_IRQHandler                  0x08000337   Thumb Code     0  startup_stm32f40_41xxx.o(.text)
    DMA2_Stream0_IRQHandler                  0x08000337   Thumb Code     0  startup_stm32f40_41xxx.o(.text)
    DMA2_Stream1_IRQHandler                  0x08000337   Thumb Code     0  startup_stm32f40_41xxx.o(.text)
    DMA2_Stream2_IRQHandler                  0x08000337   Thumb Code     0  startup_stm32f40_41xxx.o(.text)
    DMA2_Stream3_IRQHandler                  0x08000337   Thumb Code     0  startup_stm32f40_41xxx.o(.text)
    DMA2_Stream4_IRQHandler                  0x08000337   Thumb Code     0  startup_stm32f40_41xxx.o(.text)
    DMA2_Stream5_IRQHandler                  0x08000337   Thumb Code     0  startup_stm32f40_41xxx.o(.text)
    DMA2_Stream6_IRQHandler                  0x08000337   Thumb Code     0  startup_stm32f40_41xxx.o(.text)
    DMA2_Stream7_IRQHandler                  0x08000337   Thumb Code     0  startup_stm32f40_41xxx.o(.text)
    ETH_IRQHandler                           0x08000337   Thumb Code     0  startup_stm32f40_41xxx.o(.text)
    ETH_WKUP_IRQHandler                      0x08000337   Thumb Code     0  startup_stm32f40_41xxx.o(.text)
    EXTI15_10_IRQHandler                     0x08000337   Thumb Code     0  startup_stm32f40_41xxx.o(.text)
    EXTI2_IRQHandler                         0x08000337   Thumb Code     0  startup_stm32f40_41xxx.o(.text)
    EXTI3_IRQHandler                         0x08000337   Thumb Code     0  startup_stm32f40_41xxx.o(.text)
    FLASH_IRQHandler                         0x08000337   Thumb Code     0  startup_stm32f40_41xxx.o(.text)
    FPU_IRQHandler                           0x08000337   Thumb Code     0  startup_stm32f40_41xxx.o(.text)
    FSMC_IRQHandler                          0x08000337   Thumb Code     0  startup_stm32f40_41xxx.o(.text)
    HASH_RNG_IRQHandler                      0x08000337   Thumb Code     0  startup_stm32f40_41xxx.o(.text)
    I2C1_ER_IRQHandler                       0x08000337   Thumb Code     0  startup_stm32f40_41xxx.o(.text)
    I2C1_EV_IRQHandler                       0x08000337   Thumb Code     0  startup_stm32f40_41xxx.o(.text)
    I2C2_ER_IRQHandler                       0x08000337   Thumb Code     0  startup_stm32f40_41xxx.o(.text)
    I2C2_EV_IRQHandler                       0x08000337   Thumb Code     0  startup_stm32f40_41xxx.o(.text)
    I2C3_ER_IRQHandler                       0x08000337   Thumb Code     0  startup_stm32f40_41xxx.o(.text)
    I2C3_EV_IRQHandler                       0x08000337   Thumb Code     0  startup_stm32f40_41xxx.o(.text)
    OTG_FS_IRQHandler                        0x08000337   Thumb Code     0  startup_stm32f40_41xxx.o(.text)
    OTG_FS_WKUP_IRQHandler                   0x08000337   Thumb Code     0  startup_stm32f40_41xxx.o(.text)
    OTG_HS_EP1_IN_IRQHandler                 0x08000337   Thumb Code     0  startup_stm32f40_41xxx.o(.text)
    OTG_HS_EP1_OUT_IRQHandler                0x08000337   Thumb Code     0  startup_stm32f40_41xxx.o(.text)
    OTG_HS_IRQHandler                        0x08000337   Thumb Code     0  startup_stm32f40_41xxx.o(.text)
    OTG_HS_WKUP_IRQHandler                   0x08000337   Thumb Code     0  startup_stm32f40_41xxx.o(.text)
    PVD_IRQHandler                           0x08000337   Thumb Code     0  startup_stm32f40_41xxx.o(.text)
    RCC_IRQHandler                           0x08000337   Thumb Code     0  startup_stm32f40_41xxx.o(.text)
    RTC_Alarm_IRQHandler                     0x08000337   Thumb Code     0  startup_stm32f40_41xxx.o(.text)
    RTC_WKUP_IRQHandler                      0x08000337   Thumb Code     0  startup_stm32f40_41xxx.o(.text)
    SDIO_IRQHandler                          0x08000337   Thumb Code     0  startup_stm32f40_41xxx.o(.text)
    SPI1_IRQHandler                          0x08000337   Thumb Code     0  startup_stm32f40_41xxx.o(.text)
    SPI2_IRQHandler                          0x08000337   Thumb Code     0  startup_stm32f40_41xxx.o(.text)
    SPI3_IRQHandler                          0x08000337   Thumb Code     0  startup_stm32f40_41xxx.o(.text)
    TAMP_STAMP_IRQHandler                    0x08000337   Thumb Code     0  startup_stm32f40_41xxx.o(.text)
    TIM1_BRK_TIM9_IRQHandler                 0x08000337   Thumb Code     0  startup_stm32f40_41xxx.o(.text)
    TIM1_CC_IRQHandler                       0x08000337   Thumb Code     0  startup_stm32f40_41xxx.o(.text)
    TIM1_TRG_COM_TIM11_IRQHandler            0x08000337   Thumb Code     0  startup_stm32f40_41xxx.o(.text)
    TIM1_UP_TIM10_IRQHandler                 0x08000337   Thumb Code     0  startup_stm32f40_41xxx.o(.text)
    TIM2_IRQHandler                          0x08000337   Thumb Code     0  startup_stm32f40_41xxx.o(.text)
    TIM3_IRQHandler                          0x08000337   Thumb Code     0  startup_stm32f40_41xxx.o(.text)
    TIM4_IRQHandler                          0x08000337   Thumb Code     0  startup_stm32f40_41xxx.o(.text)
    TIM6_DAC_IRQHandler                      0x08000337   Thumb Code     0  startup_stm32f40_41xxx.o(.text)
    TIM7_IRQHandler                          0x08000337   Thumb Code     0  startup_stm32f40_41xxx.o(.text)
    TIM8_BRK_TIM12_IRQHandler                0x08000337   Thumb Code     0  startup_stm32f40_41xxx.o(.text)
    TIM8_CC_IRQHandler                       0x08000337   Thumb Code     0  startup_stm32f40_41xxx.o(.text)
    TIM8_TRG_COM_TIM14_IRQHandler            0x08000337   Thumb Code     0  startup_stm32f40_41xxx.o(.text)
    TIM8_UP_TIM13_IRQHandler                 0x08000337   Thumb Code     0  startup_stm32f40_41xxx.o(.text)
    UART4_IRQHandler                         0x08000337   Thumb Code     0  startup_stm32f40_41xxx.o(.text)
    UART5_IRQHandler                         0x08000337   Thumb Code     0  startup_stm32f40_41xxx.o(.text)
    USART1_IRQHandler                        0x08000337   Thumb Code     0  startup_stm32f40_41xxx.o(.text)
    USART2_IRQHandler                        0x08000337   Thumb Code     0  startup_stm32f40_41xxx.o(.text)
    USART3_IRQHandler                        0x08000337   Thumb Code     0  startup_stm32f40_41xxx.o(.text)
    USART6_IRQHandler                        0x08000337   Thumb Code     0  startup_stm32f40_41xxx.o(.text)
    WWDG_IRQHandler                          0x08000337   Thumb Code     0  startup_stm32f40_41xxx.o(.text)
    __user_initial_stackheap                 0x08000339   Thumb Code     0  startup_stm32f40_41xxx.o(.text)
    malloc                                   0x0800035d   Thumb Code    94  h1_alloc.o(.text)
    free                                     0x080003bb   Thumb Code    78  h1_free.o(.text)
    tolower                                  0x08000409   Thumb Code    26  tolower.o(.text)
    vsnprintf                                0x08000425   Thumb Code    48  vsnprintf.o(.text)
    __2sprintf                               0x08000459   Thumb Code    38  __2sprintf.o(.text)
    _printf_pre_padding                      0x08000485   Thumb Code    44  _printf_pad.o(.text)
    _printf_post_padding                     0x080004b1   Thumb Code    34  _printf_pad.o(.text)
    _printf_str                              0x080004d3   Thumb Code    82  _printf_str.o(.text)
    _printf_int_dec                          0x08000525   Thumb Code   104  _printf_dec.o(.text)
    _printf_longlong_hex                     0x0800059d   Thumb Code    86  _printf_hex_int_ll_ptr.o(.text)
    _printf_int_hex                          0x080005f3   Thumb Code    28  _printf_hex_int_ll_ptr.o(.text)
    _printf_ll_hex                           0x0800060f   Thumb Code    12  _printf_hex_int_ll_ptr.o(.text)
    _printf_hex_ptr                          0x0800061b   Thumb Code    18  _printf_hex_int_ll_ptr.o(.text)
    __printf                                 0x08000631   Thumb Code   388  __printf_flags_ss_wp.o(.text)
    strstr                                   0x080007b9   Thumb Code    36  strstr.o(.text)
    strlen                                   0x080007dd   Thumb Code    62  strlen.o(.text)
    strncmp                                  0x0800081b   Thumb Code   150  strncmp.o(.text)
    __aeabi_memcpy                           0x080008b1   Thumb Code     0  rt_memcpy_v6.o(.text)
    __rt_memcpy                              0x080008b1   Thumb Code   138  rt_memcpy_v6.o(.text)
    _memcpy_lastbytes                        0x08000917   Thumb Code     0  rt_memcpy_v6.o(.text)
    __aeabi_memcpy4                          0x0800093b   Thumb Code     0  rt_memcpy_w.o(.text)
    __aeabi_memcpy8                          0x0800093b   Thumb Code     0  rt_memcpy_w.o(.text)
    __rt_memcpy_w                            0x0800093b   Thumb Code   100  rt_memcpy_w.o(.text)
    _memcpy_lastbytes_aligned                0x08000983   Thumb Code     0  rt_memcpy_w.o(.text)
    __aeabi_memclr                           0x0800099f   Thumb Code     0  rt_memclr.o(.text)
    __rt_memclr                              0x0800099f   Thumb Code    68  rt_memclr.o(.text)
    _memset                                  0x080009a3   Thumb Code     0  rt_memclr.o(.text)
    __aeabi_memclr4                          0x080009e3   Thumb Code     0  rt_memclr_w.o(.text)
    __aeabi_memclr8                          0x080009e3   Thumb Code     0  rt_memclr_w.o(.text)
    __rt_memclr_w                            0x080009e3   Thumb Code    78  rt_memclr_w.o(.text)
    _memset_w                                0x080009e7   Thumb Code     0  rt_memclr_w.o(.text)
    __use_two_region_memory                  0x08000a31   Thumb Code     2  heapauxi.o(.text)
    __rt_heap_escrow                         0x08000a33   Thumb Code     2  heapauxi.o(.text)
    __rt_heap_expand                         0x08000a35   Thumb Code     2  heapauxi.o(.text)
    __rt_ctype_table                         0x08000a39   Thumb Code    16  rt_ctype_table.o(.text)
    __rt_heap_descriptor                     0x08000a49   Thumb Code     8  rt_heap_descriptor_intlibspace.o(.text)
    __use_no_heap                            0x08000a51   Thumb Code     2  hguard.o(.text)
    __heap$guard                             0x08000a53   Thumb Code     2  hguard.o(.text)
    _terminate_user_alloc                    0x08000a55   Thumb Code     2  init_alloc.o(.text)
    _init_user_alloc                         0x08000a57   Thumb Code     2  init_alloc.o(.text)
    __Heap_Full                              0x08000a59   Thumb Code    34  init_alloc.o(.text)
    __Heap_Broken                            0x08000a7b   Thumb Code     6  init_alloc.o(.text)
    _init_alloc                              0x08000a81   Thumb Code    94  init_alloc.o(.text)
    __Heap_Initialize                        0x08000adf   Thumb Code    10  h1_init.o(.text)
    __Heap_DescSize                          0x08000ae9   Thumb Code     4  h1_init.o(.text)
    __read_errno                             0x08000aed   Thumb Code    10  _rserrno.o(.text)
    __set_errno                              0x08000af7   Thumb Code    12  _rserrno.o(.text)
    _printf_truncate_signed                  0x08000b03   Thumb Code    18  _printf_truncate.o(.text)
    _printf_truncate_unsigned                0x08000b15   Thumb Code    18  _printf_truncate.o(.text)
    _printf_int_common                       0x08000b27   Thumb Code   178  _printf_intcommon.o(.text)
    _printf_charcount                        0x08000bd9   Thumb Code    40  _printf_charcount.o(.text)
    __lib_sel_fp_printf                      0x08000c01   Thumb Code     2  _printf_fp_dec.o(.text)
    _printf_fp_dec_real                      0x08000db3   Thumb Code   620  _printf_fp_dec.o(.text)
    _printf_char_common                      0x0800102b   Thumb Code    32  _printf_char_common.o(.text)
    _sputc                                   0x08001051   Thumb Code    10  _sputc.o(.text)
    _snputc                                  0x0800105b   Thumb Code    16  _snputc.o(.text)
    _printf_cs_common                        0x0800106b   Thumb Code    20  _printf_char.o(.text)
    _printf_char                             0x0800107f   Thumb Code    16  _printf_char.o(.text)
    _printf_string                           0x0800108f   Thumb Code     8  _printf_char.o(.text)
    _printf_wctomb                           0x08001099   Thumb Code   182  _printf_wctomb.o(.text)
    _printf_longlong_dec                     0x08001155   Thumb Code   108  _printf_longlong_dec.o(.text)
    _printf_longlong_oct                     0x080011d1   Thumb Code    66  _printf_oct_int_ll.o(.text)
    _printf_int_oct                          0x08001213   Thumb Code    24  _printf_oct_int_ll.o(.text)
    _printf_ll_oct                           0x0800122b   Thumb Code    12  _printf_oct_int_ll.o(.text)
    __user_libspace                          0x08001241   Thumb Code     8  libspace.o(.text)
    __user_perproc_libspace                  0x08001241   Thumb Code     0  libspace.o(.text)
    __user_perthread_libspace                0x08001241   Thumb Code     0  libspace.o(.text)
    __rt_locale                              0x08001249   Thumb Code     8  rt_locale_intlibspace.o(.text)
    __aeabi_errno_addr                       0x08001251   Thumb Code     8  rt_errno_addr_intlibspace.o(.text)
    __errno$intlibspace                      0x08001251   Thumb Code     0  rt_errno_addr_intlibspace.o(.text)
    __rt_errno_addr$intlibspace              0x08001251   Thumb Code     0  rt_errno_addr_intlibspace.o(.text)
    __Heap_ProvideMemory                     0x08001259   Thumb Code    52  h1_extend.o(.text)
    _ll_udiv10                               0x0800128d   Thumb Code   138  lludiv10.o(.text)
    _printf_fp_hex_real                      0x08001319   Thumb Code   756  _printf_fp_hex.o(.text)
    _printf_fp_infnan                        0x08001615   Thumb Code   112  _printf_fp_infnan.o(.text)
    _printf_lcs_common                       0x08001695   Thumb Code    20  _printf_wchar.o(.text)
    _printf_wchar                            0x080016a9   Thumb Code    16  _printf_wchar.o(.text)
    _printf_wstring                          0x080016b9   Thumb Code     8  _printf_wchar.o(.text)
    _btod_etento                             0x080016c1   Thumb Code   224  bigflt0.o(.text)
    _wcrtomb                                 0x080017a5   Thumb Code    64  _wcrtomb.o(.text)
    __rt_SIGRTMEM                            0x080017e5   Thumb Code    14  defsig_rtmem_outer.o(.text)
    __I$use$semihosting                      0x080017f3   Thumb Code     0  use_no_semi.o(.text)
    __use_no_semihosting_swi                 0x080017f3   Thumb Code     2  use_no_semi.o(.text)
    __semihosting_library_function           0x080017f5   Thumb Code     0  indicate_semi.o(.text)
    __user_setup_stackheap                   0x080017f5   Thumb Code    74  sys_stackheap_outer.o(.text)
    exit                                     0x0800183f   Thumb Code    18  exit.o(.text)
    __sig_exit                               0x08001851   Thumb Code    10  defsig_exit.o(.text)
    __rt_SIGRTMEM_inner                      0x0800185d   Thumb Code    22  defsig_rtmem_inner.o(.text)
    strcmp                                   0x080018ad   Thumb Code   128  strcmpv7m.o(.text)
    _sys_exit                                0x0800192d   Thumb Code     8  sys_exit.o(.text)
    __default_signal_display                 0x08001939   Thumb Code    50  defsig_general.o(.text)
    _ttywrch                                 0x0800196b   Thumb Code    14  sys_wrch.o(.text)
    _btod_d2e                                0x08001979   Thumb Code    62  btod.o(CL$$btod_d2e)
    _d2e_denorm_low                          0x080019b7   Thumb Code    70  btod.o(CL$$btod_d2e_denorm_low)
    _d2e_norm_op1                            0x080019fd   Thumb Code    96  btod.o(CL$$btod_d2e_norm_op1)
    __btod_div_common                        0x08001a5d   Thumb Code   696  btod.o(CL$$btod_div_common)
    _e2e                                     0x08001d95   Thumb Code   220  btod.o(CL$$btod_e2e)
    _btod_ediv                               0x08001e71   Thumb Code    42  btod.o(CL$$btod_ediv)
    _btod_emul                               0x08001e9b   Thumb Code    42  btod.o(CL$$btod_emul)
    __btod_mult_common                       0x08001ec5   Thumb Code   580  btod.o(CL$$btod_mult_common)
    BleStateCheck                            0x08002109   Thumb Code   120  bluetooth.o(i.BleStateCheck)
    BusFault_Handler                         0x080021b9   Thumb Code     2  stm32f4xx_it.o(i.BusFault_Handler)
    DMA_ClearFlag                            0x080021bd   Thumb Code    32  stm32f4xx_dma.o(i.DMA_ClearFlag)
    DMA_Cmd                                  0x080021e9   Thumb Code    20  stm32f4xx_dma.o(i.DMA_Cmd)
    DMA_DeInit                               0x080021fd   Thumb Code   272  stm32f4xx_dma.o(i.DMA_DeInit)
    DMA_GetCurrDataCounter                   0x08002321   Thumb Code     6  stm32f4xx_dma.o(i.DMA_GetCurrDataCounter)
    DMA_GetFlagStatus                        0x08002329   Thumb Code    40  stm32f4xx_dma.o(i.DMA_GetFlagStatus)
    DMA_Init                                 0x0800235d   Thumb Code    80  stm32f4xx_dma.o(i.DMA_Init)
    DMA_SetCurrDataCounter                   0x080023b1   Thumb Code     4  stm32f4xx_dma.o(i.DMA_SetCurrDataCounter)
    DebugMon_Handler                         0x080023b5   Thumb Code     2  stm32f4xx_it.o(i.DebugMon_Handler)
    EXTI0_IRQHandler                         0x080023b9   Thumb Code    42  key.o(i.EXTI0_IRQHandler)
    EXTI1_IRQHandler                         0x080023f1   Thumb Code    42  key.o(i.EXTI1_IRQHandler)
    EXTI4_IRQHandler                         0x08002429   Thumb Code    34  key.o(i.EXTI4_IRQHandler)
    EXTI9_5_IRQHandler                       0x08002451   Thumb Code    34  key.o(i.EXTI9_5_IRQHandler)
    EXTI_ClearITPendingBit                   0x08002479   Thumb Code     6  stm32f4xx_exti.o(i.EXTI_ClearITPendingBit)
    EXTI_GetITStatus                         0x08002485   Thumb Code    16  stm32f4xx_exti.o(i.EXTI_GetITStatus)
    EXTI_Init                                0x08002499   Thumb Code   108  stm32f4xx_exti.o(i.EXTI_Init)
    FifoIn                                   0x08002509   Thumb Code   108  queue.o(i.FifoIn)
    FifoInit                                 0x08002575   Thumb Code    10  queue.o(i.FifoInit)
    FifoOut                                  0x0800257f   Thumb Code    84  queue.o(i.FifoOut)
    GPIO_Init                                0x080025d3   Thumb Code   120  stm32f4xx_gpio.o(i.GPIO_Init)
    GPIO_PinAFConfig                         0x0800264b   Thumb Code    32  stm32f4xx_gpio.o(i.GPIO_PinAFConfig)
    GPIO_ResetBits                           0x0800266b   Thumb Code     4  stm32f4xx_gpio.o(i.GPIO_ResetBits)
    GPIO_SetBits                             0x0800266f   Thumb Code     4  stm32f4xx_gpio.o(i.GPIO_SetBits)
    GetSystemTime                            0x08002675   Thumb Code     6  timer.o(i.GetSystemTime)
    HTSensorMode                             0x08002681   Thumb Code    44  ht_sensor.o(i.HTSensorMode)
    HTSensor_Init                            0x080026ad   Thumb Code    82  ht_sensor.o(i.HTSensor_Init)
    HardFault_Handler                        0x08002711   Thumb Code     2  stm32f4xx_it.o(i.HardFault_Handler)
    IIC_Ack                                  0x08002715   Thumb Code    58  ht_sensor.o(i.IIC_Ack)
    IIC_NAck                                 0x0800275d   Thumb Code    58  ht_sensor.o(i.IIC_NAck)
    IIC_Read_Byte                            0x080027a5   Thumb Code   100  ht_sensor.o(i.IIC_Read_Byte)
    IIC_Send_Byte                            0x08002815   Thumb Code    90  ht_sensor.o(i.IIC_Send_Byte)
    IIC_Start                                0x0800287d   Thumb Code    62  ht_sensor.o(i.IIC_Start)
    IIC_Stop                                 0x080028c9   Thumb Code    64  ht_sensor.o(i.IIC_Stop)
    IIC_Wait_Ack                             0x08002915   Thumb Code    80  ht_sensor.o(i.IIC_Wait_Ack)
    IWDG_Enable                              0x08002971   Thumb Code    10  stm32f4xx_iwdg.o(i.IWDG_Enable)
    IWDG_Feed                                0x08002981   Thumb Code     4  iwdg.o(i.IWDG_Feed)
    IWDG_Init                                0x08002985   Thumb Code    36  iwdg.o(i.IWDG_Init)
    IWDG_ReloadCounter                       0x080029a9   Thumb Code    10  stm32f4xx_iwdg.o(i.IWDG_ReloadCounter)
    IWDG_SetPrescaler                        0x080029b9   Thumb Code     6  stm32f4xx_iwdg.o(i.IWDG_SetPrescaler)
    IWDG_SetReload                           0x080029c5   Thumb Code     6  stm32f4xx_iwdg.o(i.IWDG_SetReload)
    IWDG_WriteAccessCmd                      0x080029d1   Thumb Code     6  stm32f4xx_iwdg.o(i.IWDG_WriteAccessCmd)
    KEYService                               0x080029dd   Thumb Code    52  key.o(i.KEYService)
    KEY_Init                                 0x08002a1d   Thumb Code   208  key.o(i.KEY_Init)
    LED_BreathingLight                       0x08002af5   Thumb Code    66  led.o(i.LED_BreathingLight)
    MemManage_Handler                        0x08002b41   Thumb Code     2  stm32f4xx_it.o(i.MemManage_Handler)
    My_RTC_Init                              0x08002b45   Thumb Code   162  rtc.o(i.My_RTC_Init)
    NMI_Handler                              0x08002bf9   Thumb Code     2  stm32f4xx_it.o(i.NMI_Handler)
    NRF24L01StateCheck                       0x08002bfd   Thumb Code    64  nrf24l01.o(i.NRF24L01StateCheck)
    NRF24L01_Check                           0x08002c59   Thumb Code    68  nrf24l01.o(i.NRF24L01_Check)
    NRF24L01_Init                            0x08002ca5   Thumb Code   172  nrf24l01.o(i.NRF24L01_Init)
    NRF24L01_RX_Mode                         0x08002d65   Thumb Code    78  nrf24l01.o(i.NRF24L01_RX_Mode)
    NRF24L01_Read_Buf                        0x08002dbd   Thumb Code    54  nrf24l01.o(i.NRF24L01_Read_Buf)
    NRF24L01_Read_Reg                        0x08002df9   Thumb Code    30  nrf24l01.o(i.NRF24L01_Read_Reg)
    NRF24L01_RxPacket                        0x08002e1d   Thumb Code    56  nrf24l01.o(i.NRF24L01_RxPacket)
    NRF24L01_SPI_Init                        0x08002e55   Thumb Code    82  nrf24l01.o(i.NRF24L01_SPI_Init)
    NRF24L01_TX_Mode                         0x08002ead   Thumb Code    90  nrf24l01.o(i.NRF24L01_TX_Mode)
    NRF24L01_TxPacket                        0x08002f11   Thumb Code    84  nrf24l01.o(i.NRF24L01_TxPacket)
    NRF24L01_Write_Buf                       0x08002f69   Thumb Code    54  nrf24l01.o(i.NRF24L01_Write_Buf)
    NRF24L01_Write_Reg                       0x08002fa5   Thumb Code    40  nrf24l01.o(i.NRF24L01_Write_Reg)
    NVIC_Init                                0x08002fd1   Thumb Code    96  misc.o(i.NVIC_Init)
    NVIC_PriorityGroupConfig                 0x08003035   Thumb Code    10  misc.o(i.NVIC_PriorityGroupConfig)
    OLED_Clear                               0x08003049   Thumb Code    60  oled.o(i.OLED_Clear)
    OLED_Display_On                          0x08003085   Thumb Code    30  oled.o(i.OLED_Display_On)
    OLED_DrawBMP                             0x080030a3   Thumb Code    94  oled.o(i.OLED_DrawBMP)
    OLED_IOInit                              0x08003101   Thumb Code    54  oled.o(i.OLED_IOInit)
    OLED_Init                                0x0800313d   Thumb Code   324  oled.o(i.OLED_Init)
    OLED_Set_Pos                             0x08003285   Thumb Code    44  oled.o(i.OLED_Set_Pos)
    OLED_ShowCHinese                         0x080032b1   Thumb Code    72  oled.o(i.OLED_ShowCHinese)
    OLED_WR_Byte                             0x080032f9   Thumb Code   118  oled.o(i.OLED_WR_Byte)
    PWM_LEDInit                              0x08003375   Thumb Code   256  led.o(i.PWM_LEDInit)
    PWR_BackupAccessCmd                      0x0800347d   Thumb Code     6  stm32f4xx_pwr.o(i.PWR_BackupAccessCmd)
    PWR_DeInit                               0x08003489   Thumb Code    24  stm32f4xx_pwr.o(i.PWR_DeInit)
    PendSV_Handler                           0x080034a1   Thumb Code     2  stm32f4xx_it.o(i.PendSV_Handler)
    PrintHTInfo                              0x080034a5   Thumb Code    22  ht_sensor.o(i.PrintHTInfo)
    PrintfIOTPort2                           0x080034e1   Thumb Code    10  uart.o(i.PrintfIOTPort2)
    PrintfIOTPort4                           0x080034eb   Thumb Code    10  uart.o(i.PrintfIOTPort4)
    RCC_AHB1PeriphClockCmd                   0x080034f5   Thumb Code    18  stm32f4xx_rcc.o(i.RCC_AHB1PeriphClockCmd)
    RCC_APB1PeriphClockCmd                   0x0800350d   Thumb Code    18  stm32f4xx_rcc.o(i.RCC_APB1PeriphClockCmd)
    RCC_APB1PeriphResetCmd                   0x08003525   Thumb Code    18  stm32f4xx_rcc.o(i.RCC_APB1PeriphResetCmd)
    RCC_APB2PeriphClockCmd                   0x0800353d   Thumb Code    18  stm32f4xx_rcc.o(i.RCC_APB2PeriphClockCmd)
    RCC_APB2PeriphResetCmd                   0x08003555   Thumb Code    18  stm32f4xx_rcc.o(i.RCC_APB2PeriphResetCmd)
    RCC_GetClocksFreq                        0x0800356d   Thumb Code   132  stm32f4xx_rcc.o(i.RCC_GetClocksFreq)
    RCC_GetFlagStatus                        0x080035fd   Thumb Code    46  stm32f4xx_rcc.o(i.RCC_GetFlagStatus)
    RCC_LSICmd                               0x08003631   Thumb Code     6  stm32f4xx_rcc.o(i.RCC_LSICmd)
    RCC_RTCCLKCmd                            0x0800363d   Thumb Code     6  stm32f4xx_rcc.o(i.RCC_RTCCLKCmd)
    RCC_RTCCLKConfig                         0x08003649   Thumb Code    40  stm32f4xx_rcc.o(i.RCC_RTCCLKConfig)
    RTC_DeInit                               0x080036a5   Thumb Code   168  stm32f4xx_rtc.o(i.RTC_DeInit)
    RTC_EnterInitMode                        0x08003755   Thumb Code    56  stm32f4xx_rtc.o(i.RTC_EnterInitMode)
    RTC_ExitInitMode                         0x08003791   Thumb Code    12  stm32f4xx_rtc.o(i.RTC_ExitInitMode)
    RTC_GetDate                              0x080037a1   Thumb Code    66  stm32f4xx_rtc.o(i.RTC_GetDate)
    RTC_GetTime                              0x080037ed   Thumb Code    70  stm32f4xx_rtc.o(i.RTC_GetTime)
    RTC_Init                                 0x0800383d   Thumb Code    74  stm32f4xx_rtc.o(i.RTC_Init)
    RTC_ReadBackupRegister                   0x0800388d   Thumb Code    14  stm32f4xx_rtc.o(i.RTC_ReadBackupRegister)
    RTC_SetDate                              0x080038a1   Thumb Code   144  stm32f4xx_rtc.o(i.RTC_SetDate)
    RTC_SetTime                              0x08003939   Thumb Code   150  stm32f4xx_rtc.o(i.RTC_SetTime)
    RTC_Set_Date                             0x080039d9   Thumb Code    28  rtc.o(i.RTC_Set_Date)
    RTC_Set_Time                             0x080039f5   Thumb Code    28  rtc.o(i.RTC_Set_Time)
    RTC_WaitForSynchro                       0x08003a11   Thumb Code    70  stm32f4xx_rtc.o(i.RTC_WaitForSynchro)
    RTC_WriteBackupRegister                  0x08003a5d   Thumb Code    14  stm32f4xx_rtc.o(i.RTC_WriteBackupRegister)
    ReadHTSensorData                         0x08003a71   Thumb Code   178  ht_sensor.o(i.ReadHTSensorData)
    SPI1_Init                                0x08003b39   Thumb Code   186  nrf24l01.o(i.SPI1_Init)
    SPI1_ReadWriteByte                       0x08003bfd   Thumb Code    48  nrf24l01.o(i.SPI1_ReadWriteByte)
    SPI1_SetSpeed                            0x08003c31   Thumb Code    24  nrf24l01.o(i.SPI1_SetSpeed)
    SPI_Cmd                                  0x08003c4d   Thumb Code    20  stm32f4xx_spi.o(i.SPI_Cmd)
    SPI_I2S_GetFlagStatus                    0x08003c61   Thumb Code    14  stm32f4xx_spi.o(i.SPI_I2S_GetFlagStatus)
    SPI_I2S_ReceiveData                      0x08003c6f   Thumb Code     4  stm32f4xx_spi.o(i.SPI_I2S_ReceiveData)
    SPI_I2S_SendData                         0x08003c73   Thumb Code     4  stm32f4xx_spi.o(i.SPI_I2S_SendData)
    SPI_Init                                 0x08003c77   Thumb Code    56  stm32f4xx_spi.o(i.SPI_Init)
    SVC_Handler                              0x08003caf   Thumb Code     2  stm32f4xx_it.o(i.SVC_Handler)
    SYSCFG_EXTILineConfig                    0x08003cb1   Thumb Code    42  stm32f4xx_syscfg.o(i.SYSCFG_EXTILineConfig)
    Sizeofmsg                                0x08003d95   Thumb Code    22  uart.o(i.Sizeofmsg)
    SysTick_Handler                          0x08003dad   Thumb Code    16  stm32f4xx_it.o(i.SysTick_Handler)
    SystemInit                               0x08003dc1   Thumb Code    74  system_stm32f4xx.o(i.SystemInit)
    TIM5_IRQHandler                          0x08003e1d   Thumb Code   158  timer.o(i.TIM5_IRQHandler)
    TIM5_Init                                0x08003ed1   Thumb Code    96  timer.o(i.TIM5_Init)
    TIM_ARRPreloadConfig                     0x08003f35   Thumb Code    20  stm32f4xx_tim.o(i.TIM_ARRPreloadConfig)
    TIM_ClearITPendingBit                    0x08003f49   Thumb Code     6  stm32f4xx_tim.o(i.TIM_ClearITPendingBit)
    TIM_Cmd                                  0x08003f4f   Thumb Code    20  stm32f4xx_tim.o(i.TIM_Cmd)
    TIM_CtrlPWMOutputs                       0x08003f63   Thumb Code    22  stm32f4xx_tim.o(i.TIM_CtrlPWMOutputs)
    TIM_GetITStatus                          0x08003f79   Thumb Code    24  stm32f4xx_tim.o(i.TIM_GetITStatus)
    TIM_ITConfig                             0x08003f91   Thumb Code    16  stm32f4xx_tim.o(i.TIM_ITConfig)
    TIM_OC2Init                              0x08003fa1   Thumb Code   120  stm32f4xx_tim.o(i.TIM_OC2Init)
    TIM_OC2PreloadConfig                     0x08004021   Thumb Code    20  stm32f4xx_tim.o(i.TIM_OC2PreloadConfig)
    TIM_OC3Init                              0x08004035   Thumb Code   116  stm32f4xx_tim.o(i.TIM_OC3Init)
    TIM_OC3PreloadConfig                     0x080040b1   Thumb Code    12  stm32f4xx_tim.o(i.TIM_OC3PreloadConfig)
    TIM_OC4Init                              0x080040bd   Thumb Code    88  stm32f4xx_tim.o(i.TIM_OC4Init)
    TIM_OC4PreloadConfig                     0x0800411d   Thumb Code    20  stm32f4xx_tim.o(i.TIM_OC4PreloadConfig)
    TIM_PrescalerConfig                      0x08004131   Thumb Code     6  stm32f4xx_tim.o(i.TIM_PrescalerConfig)
    TIM_SetCompare2                          0x08004137   Thumb Code     4  stm32f4xx_tim.o(i.TIM_SetCompare2)
    TIM_SetCompare3                          0x0800413b   Thumb Code     4  stm32f4xx_tim.o(i.TIM_SetCompare3)
    TIM_SetCompare4                          0x0800413f   Thumb Code     4  stm32f4xx_tim.o(i.TIM_SetCompare4)
    TIM_TimeBaseInit                         0x08004145   Thumb Code    96  stm32f4xx_tim.o(i.TIM_TimeBaseInit)
    UART1Init                                0x080041c1   Thumb Code   180  uart.o(i.UART1Init)
    UART1Poll                                0x08004285   Thumb Code    80  uart.o(i.UART1Poll)
    UART1_DMA_Init                           0x080042e1   Thumb Code   194  uart.o(i.UART1_DMA_Init)
    UART1_SentMsgL                           0x080043b9   Thumb Code    94  uart.o(i.UART1_SentMsgL)
    UART2Init                                0x08004421   Thumb Code   180  uart.o(i.UART2Init)
    UART2Poll                                0x080044e5   Thumb Code   114  uart.o(i.UART2Poll)
    UART2_DMA_Init                           0x08004569   Thumb Code   192  uart.o(i.UART2_DMA_Init)
    UART2_SentMsg                            0x0800463d   Thumb Code    92  uart.o(i.UART2_SentMsg)
    UART2_SentMsgL                           0x080046a5   Thumb Code    94  uart.o(i.UART2_SentMsgL)
    UART3Poll                                0x08004711   Thumb Code   112  uart.o(i.UART3Poll)
    UART4Init                                0x08004791   Thumb Code   176  uart.o(i.UART4Init)
    UART4Poll                                0x08004851   Thumb Code   122  uart.o(i.UART4Poll)
    UART4_DMA_Init                           0x080048dd   Thumb Code   194  uart.o(i.UART4_DMA_Init)
    UART4_SentMsgL                           0x080049b5   Thumb Code    92  uart.o(i.UART4_SentMsgL)
    USART_ClearFlag                          0x08004a1d   Thumb Code     6  stm32f4xx_usart.o(i.USART_ClearFlag)
    USART_Cmd                                0x08004a23   Thumb Code    20  stm32f4xx_usart.o(i.USART_Cmd)
    USART_DMACmd                             0x08004a37   Thumb Code    16  stm32f4xx_usart.o(i.USART_DMACmd)
    USART_GetFlagStatus                      0x08004a47   Thumb Code    14  stm32f4xx_usart.o(i.USART_GetFlagStatus)
    USART_Init                               0x08004a55   Thumb Code   164  stm32f4xx_usart.o(i.USART_Init)
    Uart1Read                                0x08004b01   Thumb Code   126  uart.o(i.Uart1Read)
    Uart2Read                                0x08004b89   Thumb Code   124  uart.o(i.Uart2Read)
    Uart3Read                                0x08004c0d   Thumb Code   124  uart.o(i.Uart3Read)
    Uart4Read                                0x08004c91   Thumb Code   126  uart.o(i.Uart4Read)
    UsageFault_Handler                       0x08004d19   Thumb Code     2  stm32f4xx_it.o(i.UsageFault_Handler)
    WifiStateCheck                           0x08004d1d   Thumb Code   120  wifi.o(i.WifiStateCheck)
    __ARM_fpclassify                         0x08004dd1   Thumb Code    48  fpclassify.o(i.__ARM_fpclassify)
    __hardfp_pow                             0x08004e01   Thumb Code  3072  pow.o(i.__hardfp_pow)
    __kernel_poly                            0x08005a51   Thumb Code   248  poly.o(i.__kernel_poly)
    __mathlib_dbl_divzero                    0x08005b49   Thumb Code    28  dunder.o(i.__mathlib_dbl_divzero)
    __mathlib_dbl_infnan2                    0x08005b79   Thumb Code    20  dunder.o(i.__mathlib_dbl_infnan2)
    __mathlib_dbl_invalid                    0x08005b91   Thumb Code    24  dunder.o(i.__mathlib_dbl_invalid)
    __mathlib_dbl_overflow                   0x08005bb1   Thumb Code    24  dunder.o(i.__mathlib_dbl_overflow)
    __mathlib_dbl_underflow                  0x08005bd1   Thumb Code    24  dunder.o(i.__mathlib_dbl_underflow)
    _is_digit                                0x08005bf1   Thumb Code    14  __printf_wp.o(i._is_digit)
    ble_init                                 0x08005c01   Thumb Code   148  bluetooth.o(i.ble_init)
    bluetooth_msg_porcess                    0x08005ca9   Thumb Code   272  bluetooth.o(i.bluetooth_msg_porcess)
    cJSON_Delete                             0x08005e35   Thumb Code    66  cjson.o(i.cJSON_Delete)
    cJSON_GetObjectItem                      0x08005e7d   Thumb Code    28  cjson.o(i.cJSON_GetObjectItem)
    cJSON_Parse                              0x08005eb5   Thumb Code     8  cjson.o(i.cJSON_Parse)
    cJSON_ParseWithOpts                      0x08005ebd   Thumb Code    92  cjson.o(i.cJSON_ParseWithOpts)
    connect_server                           0x08005f61   Thumb Code    38  wifi.o(i.connect_server)
    connect_wifi_network                     0x08005f95   Thumb Code   104  wifi.o(i.connect_wifi_network)
    delay_ms                                 0x0800600d   Thumb Code    18  stm32f4xx_it.o(i.delay_ms)
    delay_us                                 0x08006025   Thumb Code    12  stm32f4xx_it.o(i.delay_us)
    diag_cmd_compare                         0x08006035   Thumb Code    54  msg_deal.o(i.diag_cmd_compare)
    diag_cmd_complete                        0x0800606d   Thumb Code     8  msg_deal.o(i.diag_cmd_complete)
    diag_cmd_input                           0x0800607d   Thumb Code   266  msg_deal.o(i.diag_cmd_input)
    diag_cmd_para_parse                      0x08006195   Thumb Code   298  msg_deal.o(i.diag_cmd_para_parse)
    diag_cmd_process                         0x080062c1   Thumb Code   228  msg_deal.o(i.diag_cmd_process)
    diag_cmd_start                           0x0800641d   Thumb Code     8  msg_deal.o(i.diag_cmd_start)
    diag_help                                0x08006435   Thumb Code    34  msg_deal.o(i.diag_help)
    entry_send_state                         0x0800645d   Thumb Code    38  wifi.o(i.entry_send_state)
    fabs                                     0x08006491   Thumb Code    24  fabs.o(i.fabs)
    find_cmd                                 0x080064a9   Thumb Code   102  msg_deal.o(i.find_cmd)
    get_data_str_index                       0x08006559   Thumb Code    56  wifi.o(i.get_data_str_index)
    get_network_time_cmds                    0x08006591   Thumb Code    52  wifi.o(i.get_network_time_cmds)
    get_wifi_info_data                       0x080065c9   Thumb Code   182  wifi.o(i.get_wifi_info_data)
    init_wifi_network                        0x080066dd   Thumb Code   192  wifi.o(i.init_wifi_network)
    main                                     0x080067b5   Thumb Code   150  main.o(i.main)
    nrf_communication_service_msg_process    0x0800685d   Thumb Code   164  nrf24l01.o(i.nrf_communication_service_msg_process)
    paraing_time_string                      0x08006941   Thumb Code   188  wifi.o(i.paraing_time_string)
    parsing_the_str                          0x08006f81   Thumb Code    44  wifi.o(i.parsing_the_str)
    parsing_time_json_info                   0x08006fad   Thumb Code   190  wifi.o(i.parsing_time_json_info)
    parsing_weather_json_info                0x0800711d   Thumb Code   274  wifi.o(i.parsing_weather_json_info)
    parsing_wifi_mac_data                    0x08007351   Thumb Code    68  wifi.o(i.parsing_wifi_mac_data)
    parsing_wifi_signal_info                 0x080073b9   Thumb Code    80  wifi.o(i.parsing_wifi_signal_info)
    periodic_task_process                    0x08007421   Thumb Code    42  msg_deal.o(i.periodic_task_process)
    print_weather_and_time_info              0x08007461   Thumb Code    32  msg_deal.o(i.print_weather_and_time_info)
    print_wifi_weather_time_info             0x080074b9   Thumb Code   126  wifi.o(i.print_wifi_weather_time_info)
    queue_in                                 0x0800762d   Thumb Code    84  queue.o(i.queue_in)
    queue_init                               0x08007681   Thumb Code    10  queue.o(i.queue_init)
    queue_out                                0x0800768b   Thumb Code    94  queue.o(i.queue_out)
    quiry_wifi                               0x080076e9   Thumb Code    38  wifi.o(i.quiry_wifi)
    quit_network_connect_cmd                 0x0800771d   Thumb Code    38  wifi.o(i.quit_network_connect_cmd)
    quit_send_data_mode_cmd                  0x08007751   Thumb Code    38  wifi.o(i.quit_send_data_mode_cmd)
    rt_hw_console_output                     0x08007785   Thumb Code     4  uart.o(i.rt_hw_console_output)
    rt_kprintf                               0x08007789   Thumb Code    48  uart.o(i.rt_kprintf)
    rt_kprintf2                              0x080077bd   Thumb Code    28  uart.o(i.rt_kprintf2)
    send_data                                0x080077dd   Thumb Code    42  wifi.o(i.send_data)
    send_weather_data                        0x08007811   Thumb Code    42  wifi.o(i.send_weather_data)
    set_send_mode                            0x08007845   Thumb Code    52  wifi.o(i.set_send_mode)
    shell_init                               0x08007889   Thumb Code    20  msg_deal.o(i.shell_init)
    shell_process                            0x080078a1   Thumb Code    50  msg_deal.o(i.shell_process)
    show_common_string                       0x080078e1   Thumb Code    86  oled.o(i.show_common_string)
    show_date_str                            0x08007939   Thumb Code   160  oled.o(i.show_date_str)
    show_interface_oled                      0x080079dd   Thumb Code   818  show.o(i.show_interface_oled)
    show_line                                0x08007dd1   Thumb Code    64  oled.o(i.show_line)
    show_oled_char                           0x08007e15   Thumb Code   432  oled.o(i.show_oled_char)
    show_t_rh_string                         0x08007fd1   Thumb Code    86  oled.o(i.show_t_rh_string)
    show_time_str                            0x08008027   Thumb Code    52  oled.o(i.show_time_str)
    sqrt                                     0x0800806f   Thumb Code   110  sqrt.o(i.sqrt)
    test2                                    0x080080dd   Thumb Code    10  msg_deal.o(i.test2)
    test3                                    0x080080fd   Thumb Code    12  msg_deal.o(i.test3)
    wifi_bmp_clear                           0x08008129   Thumb Code    40  show.o(i.wifi_bmp_clear)
    wifi_msg_process                         0x08008151   Thumb Code   390  wifi.o(i.wifi_msg_process)
    _get_lc_ctype                            0x0800832d   Thumb Code    44  lc_ctype_c.o(locale$$code)
    _get_lc_numeric                          0x08008359   Thumb Code    44  lc_numeric_c.o(locale$$code)
    __aeabi_dneg                             0x08008385   Thumb Code     0  basic.o(x$fpl$basic)
    _dneg                                    0x08008385   Thumb Code     6  basic.o(x$fpl$basic)
    __aeabi_fneg                             0x0800838b   Thumb Code     0  basic.o(x$fpl$basic)
    _fneg                                    0x0800838b   Thumb Code     6  basic.o(x$fpl$basic)
    _dabs                                    0x08008391   Thumb Code     6  basic.o(x$fpl$basic)
    _fabs                                    0x08008397   Thumb Code     6  basic.o(x$fpl$basic)
    __aeabi_dadd                             0x0800839d   Thumb Code     0  daddsub_clz.o(x$fpl$dadd)
    _dadd                                    0x0800839d   Thumb Code   332  daddsub_clz.o(x$fpl$dadd)
    __fpl_dcheck_NaN1                        0x080084ed   Thumb Code    10  dcheck1.o(x$fpl$dcheck1)
    __fpl_dcmp_Inf                           0x080084fd   Thumb Code    24  dcmpi.o(x$fpl$dcmpinf)
    __aeabi_ddiv                             0x08008515   Thumb Code     0  ddiv.o(x$fpl$ddiv)
    _ddiv                                    0x08008515   Thumb Code   552  ddiv.o(x$fpl$ddiv)
    __aeabi_d2iz                             0x080087c5   Thumb Code     0  dfix.o(x$fpl$dfix)
    _dfix                                    0x080087c5   Thumb Code    94  dfix.o(x$fpl$dfix)
    __aeabi_i2d                              0x08008823   Thumb Code     0  dflt_clz.o(x$fpl$dflt)
    _dflt                                    0x08008823   Thumb Code    46  dflt_clz.o(x$fpl$dflt)
    __aeabi_cdcmple                          0x08008851   Thumb Code     0  dleqf.o(x$fpl$dleqf)
    _dcmple                                  0x08008851   Thumb Code   120  dleqf.o(x$fpl$dleqf)
    __fpl_dcmple_InfNaN                      0x080088b3   Thumb Code     0  dleqf.o(x$fpl$dleqf)
    __aeabi_dmul                             0x080088c9   Thumb Code     0  dmul.o(x$fpl$dmul)
    _dmul                                    0x080088c9   Thumb Code   332  dmul.o(x$fpl$dmul)
    __fpl_dnaninf                            0x08008a1d   Thumb Code   156  dnaninf.o(x$fpl$dnaninf)
    __fpl_dretinf                            0x08008ab9   Thumb Code    12  dretinf.o(x$fpl$dretinf)
    __aeabi_cdrcmple                         0x08008ac5   Thumb Code     0  drleqf.o(x$fpl$drleqf)
    _drcmple                                 0x08008ac5   Thumb Code   108  drleqf.o(x$fpl$drleqf)
    __aeabi_drsub                            0x08008b31   Thumb Code     0  daddsub_clz.o(x$fpl$drsb)
    _drsb                                    0x08008b31   Thumb Code    22  daddsub_clz.o(x$fpl$drsb)
    _dsqrt                                   0x08008b49   Thumb Code   404  dsqrt_umaal.o(x$fpl$dsqrt)
    __aeabi_dsub                             0x08008ce1   Thumb Code     0  daddsub_clz.o(x$fpl$dsub)
    _dsub                                    0x08008ce1   Thumb Code   464  daddsub_clz.o(x$fpl$dsub)
    _fp_init                                 0x08008eb5   Thumb Code    10  fpinit.o(x$fpl$fpinit)
    __fplib_config_fpu_vfp                   0x08008ebd   Thumb Code     0  fpinit.o(x$fpl$fpinit)
    __fplib_config_pureend_doubles           0x08008ebd   Thumb Code     0  fpinit.o(x$fpl$fpinit)
    _printf_fp_dec                           0x08008ebf   Thumb Code     4  printf1.o(x$fpl$printf1)
    _printf_fp_hex                           0x08008ec3   Thumb Code     4  printf2.o(x$fpl$printf2)
    __fpl_return_NaN                         0x08008ec7   Thumb Code   100  retnan.o(x$fpl$retnan)
    __ARM_scalbn                             0x08008f2b   Thumb Code    92  scalbn.o(x$fpl$scalbn)
    __fpl_cmpreturn                          0x08008f87   Thumb Code    48  trapv.o(x$fpl$trapveneer)
    __I$use$fp                               0x08008fb6   Number         0  usenofp.o(x$fpl$usenofp)
    TX_ADDRESS                               0x08008fd8   Data           5  nrf24l01.o(.constdata)
    RX_ADDRESS                               0x08008fdd   Data           5  nrf24l01.o(.constdata)
    F6x8                                     0x08008fe9   Data         552  oledfont.o(.constdata)
    F16X32                                   0x08009211   Data         352  oledfont.o(.constdata)
    F8X16                                    0x08009371   Data        1520  oledfont.o(.constdata)
    __mathlib_zero                           0x08009a30   Data           8  qnan.o(.constdata)
    Region$$Table$$Base                      0x08009c40   Number         0  anon$$obj.o(Region$$Table)
    Region$$Table$$Limit                     0x08009c60   Number         0  anon$$obj.o(Region$$Table)
    __ctype                                  0x08009c6d   Data           0  lc_ctype_c.o(locale$$data)
    TimeDelay                                0x20000010   Data           4  stm32f4xx_it.o(.data)
    SystemCoreClock                          0x20000014   Data           4  system_stm32f4xx.o(.data)
    AHBPrescTable                            0x20000018   Data          16  system_stm32f4xx.o(.data)
    UART1FramInFlag                          0x2000002c   Data           1  uart.o(.data)
    UART2FramInFlag                          0x2000002e   Data           1  uart.o(.data)
    UART3FramInFlag                          0x20000030   Data           1  uart.o(.data)
    Uart3RcvStartFlag                        0x20000031   Data           1  uart.o(.data)
    UART4FramInFlag                          0x20000032   Data           1  uart.o(.data)
    Uart4RcvStartFlag                        0x20000033   Data           1  uart.o(.data)
    Uart1Len                                 0x20000034   Data           2  uart.o(.data)
    Uart2Len                                 0x2000003a   Data           2  uart.o(.data)
    Uart3Len                                 0x20000040   Data           2  uart.o(.data)
    Uart4Len                                 0x20000046   Data           2  uart.o(.data)
    Uart1TxBuffer                            0x2000006c   Data        4096  uart.o(.data)
    Uart2TxBuffer                            0x2000106c   Data        4096  uart.o(.data)
    Uart3TxBuffer                            0x2000206c   Data        4096  uart.o(.data)
    Uart4TxBuffer                            0x2000306c   Data        4096  uart.o(.data)
    FrameInlen                               0x2000406c   Data           2  uart.o(.data)
    temp_key4_systemtime                     0x20004070   Data           4  key.o(.data)
    temp_key5_systemtime                     0x20004074   Data           4  key.o(.data)
    ble_cmd                                  0x20004084   Data          96  bluetooth.o(.data)
    WiFiNetCmd                               0x200040e4   Data        1500  wifi.o(.data)
    get_network_time_str                     0x200046c0   Data         107  wifi.o(.data)
    get_network_weather_str                  0x2000472b   Data         117  wifi.o(.data)
    Systemtime                               0x200047a0   Data           4  timer.o(.data)
    advanced_clock                           0x200047a4   Data         512  bmp.o(.data)
    weather_icon                             0x200049a4   Data         252  bmp.o(.data)
    signal_bmp1                              0x20004aa0   Data          22  oledfont.o(.data)
    signal_idle                              0x20004ab6   Data          32  oledfont.o(.data)
    battery_bmp2                             0x20004ad6   Data          16  oledfont.o(.data)
    line_num                                 0x20004ae6   Data           8  oledfont.o(.data)
    number_font                              0x20004aee   Data         176  oledfont.o(.data)
    f_city                                   0x20004b9e   Data         128  oledfont.o(.data)
    connect                                  0x20004c1e   Data          32  oledfont.o(.data)
    cmd_process_buff_index                   0x20004c40   Data           1  msg_deal.o(.data)
    diag_base_cmd                            0x20004c44   Data         140  msg_deal.o(.data)
    oled_show_state                          0x20004cd0   Data           1  show.o(.data)
    FrameInBuff                              0x20004cd8   Data        4096  uart.o(.bss)
    Uart1RxBuffer                            0x20006e58   Data        4096  uart.o(.bss)
    Uart2RxBuffer                            0x20007e58   Data        4096  uart.o(.bss)
    Uart3RxBuffer                            0x20008e58   Data        4096  uart.o(.bss)
    Uart4RxBuffer                            0x20009e58   Data        4096  uart.o(.bss)
    sOperCmdUnion_wifi                       0x2000ae58   Data         264  queue.o(.bss)
    sOperCmdBuff                             0x2000af60   Data         264  queue.o(.bss)
    sOperCmdUnionFifo_wifi                   0x2000b068   Data        4228  queue.o(.bss)
    sOperCmdUnion_ble                        0x2000c0ec   Data         264  queue.o(.bss)
    sOperCmdBuff_ble                         0x2000c1f4   Data         264  queue.o(.bss)
    sOperCmdUnionFifo_ble                    0x2000c2fc   Data        4228  queue.o(.bss)
    MyQueue                                  0x2000d380   Data        8200  queue.o(.bss)
    wifi_queue                               0x2000f388   Data        8200  queue.o(.bss)
    nb_queue                                 0x20011390   Data        8200  queue.o(.bss)
    ble_queue                                0x20013398   Data        8200  queue.o(.bss)
    nrf24l01_queue                           0x200153a0   Data        8200  queue.o(.bss)
    NRFTXBuffer                              0x200173a8   Data          32  nrf24l01.o(.bss)
    NRFRXBuffer                              0x200173c8   Data          32  nrf24l01.o(.bss)
    wifi_info_g                              0x200173e8   Data         132  wifi.o(.bss)
    time_and_weather_g                       0x2001746c   Data          44  wifi.o(.bss)
    system_var                               0x20017498   Data          16  msg_deal.o(.bss)
    cmd_process_buff                         0x200174a8   Data          64  msg_deal.o(.bss)
    system_data                              0x200174e8   Data          12  msg_deal.o(.bss)
    __libspace_start                         0x20017508   Data          96  libspace.o(.bss)
    __temporary_stack_top$libspace           0x20017568   Data           0  libspace.o(.bss)



==============================================================================

Memory Map of the image

  Image Entry point : 0x08000189

  Load Region LR_IROM1 (Base: 0x08000000, Size: 0x0000ea64, Max: 0x00100000, ABSOLUTE, COMPRESSED[0x0000a24c])

    Execution Region ER_IROM1 (Exec base: 0x08000000, Load base: 0x08000000, Size: 0x00009d8c, Max: 0x00100000, ABSOLUTE)

    Exec Addr    Load Addr    Size         Type   Attr      Idx    E Section Name        Object

    0x08000000   0x08000000   0x00000188   Data   RO         3298    RESET               startup_stm32f40_41xxx.o
    0x08000188   0x08000188   0x00000008   Code   RO         5135  * !!!main             c_w.l(__main.o)
    0x08000190   0x08000190   0x00000034   Code   RO         5567    !!!scatter          c_w.l(__scatter.o)
    0x080001c4   0x080001c4   0x0000005a   Code   RO         5565    !!dczerorl2         c_w.l(__dczerorl2.o)
    0x0800021e   0x0800021e   0x00000002   PAD
    0x08000220   0x08000220   0x0000001c   Code   RO         5569    !!handler_zi        c_w.l(__scatter_zi.o)
    0x0800023c   0x0800023c   0x00000000   Code   RO         5114    .ARM.Collect$$_printf_percent$$00000000  c_w.l(_printf_percent.o)
    0x0800023c   0x0800023c   0x00000006   Code   RO         5255    .ARM.Collect$$_printf_percent$$00000001  c_w.l(_printf_n.o)
    0x08000242   0x08000242   0x00000006   Code   RO         5256    .ARM.Collect$$_printf_percent$$00000002  c_w.l(_printf_p.o)
    0x08000248   0x08000248   0x00000006   Code   RO         5112    .ARM.Collect$$_printf_percent$$00000003  c_w.l(_printf_f.o)
    0x0800024e   0x0800024e   0x00000006   Code   RO         5113    .ARM.Collect$$_printf_percent$$00000004  c_w.l(_printf_e.o)
    0x08000254   0x08000254   0x00000006   Code   RO         5260    .ARM.Collect$$_printf_percent$$00000005  c_w.l(_printf_g.o)
    0x0800025a   0x0800025a   0x00000006   Code   RO         5261    .ARM.Collect$$_printf_percent$$00000006  c_w.l(_printf_a.o)
    0x08000260   0x08000260   0x0000000a   Code   RO         5266    .ARM.Collect$$_printf_percent$$00000007  c_w.l(_printf_ll.o)
    0x0800026a   0x0800026a   0x00000006   Code   RO         5258    .ARM.Collect$$_printf_percent$$00000008  c_w.l(_printf_i.o)
    0x08000270   0x08000270   0x00000006   Code   RO         5111    .ARM.Collect$$_printf_percent$$00000009  c_w.l(_printf_d.o)
    0x08000276   0x08000276   0x00000006   Code   RO         5259    .ARM.Collect$$_printf_percent$$0000000A  c_w.l(_printf_u.o)
    0x0800027c   0x0800027c   0x00000006   Code   RO         5257    .ARM.Collect$$_printf_percent$$0000000B  c_w.l(_printf_o.o)
    0x08000282   0x08000282   0x00000006   Code   RO         5110    .ARM.Collect$$_printf_percent$$0000000C  c_w.l(_printf_x.o)
    0x08000288   0x08000288   0x00000006   Code   RO         5263    .ARM.Collect$$_printf_percent$$0000000D  c_w.l(_printf_lli.o)
    0x0800028e   0x0800028e   0x00000006   Code   RO         5264    .ARM.Collect$$_printf_percent$$0000000E  c_w.l(_printf_lld.o)
    0x08000294   0x08000294   0x00000006   Code   RO         5265    .ARM.Collect$$_printf_percent$$0000000F  c_w.l(_printf_llu.o)
    0x0800029a   0x0800029a   0x00000006   Code   RO         5270    .ARM.Collect$$_printf_percent$$00000010  c_w.l(_printf_llo.o)
    0x080002a0   0x080002a0   0x00000006   Code   RO         5271    .ARM.Collect$$_printf_percent$$00000011  c_w.l(_printf_llx.o)
    0x080002a6   0x080002a6   0x0000000a   Code   RO         5267    .ARM.Collect$$_printf_percent$$00000012  c_w.l(_printf_l.o)
    0x080002b0   0x080002b0   0x00000006   Code   RO         5254    .ARM.Collect$$_printf_percent$$00000013  c_w.l(_printf_c.o)
    0x080002b6   0x080002b6   0x00000006   Code   RO         5109    .ARM.Collect$$_printf_percent$$00000014  c_w.l(_printf_s.o)
    0x080002bc   0x080002bc   0x00000006   Code   RO         5268    .ARM.Collect$$_printf_percent$$00000015  c_w.l(_printf_lc.o)
    0x080002c2   0x080002c2   0x00000006   Code   RO         5269    .ARM.Collect$$_printf_percent$$00000016  c_w.l(_printf_ls.o)
    0x080002c8   0x080002c8   0x00000004   Code   RO         5262    .ARM.Collect$$_printf_percent$$00000017  c_w.l(_printf_percent_end.o)
    0x080002cc   0x080002cc   0x00000002   Code   RO         5498    .ARM.Collect$$libinit$$00000000  c_w.l(libinit.o)
    0x080002ce   0x080002ce   0x00000004   Code   RO         5274    .ARM.Collect$$libinit$$00000001  c_w.l(libinit2.o)
    0x080002d2   0x080002d2   0x00000000   Code   RO         5277    .ARM.Collect$$libinit$$00000004  c_w.l(libinit2.o)
    0x080002d2   0x080002d2   0x00000008   Code   RO         5278    .ARM.Collect$$libinit$$00000005  c_w.l(libinit2.o)
    0x080002da   0x080002da   0x00000000   Code   RO         5280    .ARM.Collect$$libinit$$0000000A  c_w.l(libinit2.o)
    0x080002da   0x080002da   0x00000000   Code   RO         5282    .ARM.Collect$$libinit$$0000000C  c_w.l(libinit2.o)
    0x080002da   0x080002da   0x00000000   Code   RO         5284    .ARM.Collect$$libinit$$0000000E  c_w.l(libinit2.o)
    0x080002da   0x080002da   0x00000006   Code   RO         5285    .ARM.Collect$$libinit$$0000000F  c_w.l(libinit2.o)
    0x080002e0   0x080002e0   0x00000000   Code   RO         5287    .ARM.Collect$$libinit$$00000011  c_w.l(libinit2.o)
    0x080002e0   0x080002e0   0x0000000c   Code   RO         5288    .ARM.Collect$$libinit$$00000012  c_w.l(libinit2.o)
    0x080002ec   0x080002ec   0x00000000   Code   RO         5289    .ARM.Collect$$libinit$$00000013  c_w.l(libinit2.o)
    0x080002ec   0x080002ec   0x00000000   Code   RO         5291    .ARM.Collect$$libinit$$00000015  c_w.l(libinit2.o)
    0x080002ec   0x080002ec   0x0000000a   Code   RO         5292    .ARM.Collect$$libinit$$00000016  c_w.l(libinit2.o)
    0x080002f6   0x080002f6   0x00000000   Code   RO         5293    .ARM.Collect$$libinit$$00000017  c_w.l(libinit2.o)
    0x080002f6   0x080002f6   0x00000000   Code   RO         5295    .ARM.Collect$$libinit$$00000019  c_w.l(libinit2.o)
    0x080002f6   0x080002f6   0x00000000   Code   RO         5297    .ARM.Collect$$libinit$$0000001B  c_w.l(libinit2.o)
    0x080002f6   0x080002f6   0x00000000   Code   RO         5299    .ARM.Collect$$libinit$$0000001D  c_w.l(libinit2.o)
    0x080002f6   0x080002f6   0x00000000   Code   RO         5301    .ARM.Collect$$libinit$$0000001F  c_w.l(libinit2.o)
    0x080002f6   0x080002f6   0x00000000   Code   RO         5303    .ARM.Collect$$libinit$$00000021  c_w.l(libinit2.o)
    0x080002f6   0x080002f6   0x00000000   Code   RO         5305    .ARM.Collect$$libinit$$00000023  c_w.l(libinit2.o)
    0x080002f6   0x080002f6   0x00000000   Code   RO         5307    .ARM.Collect$$libinit$$00000025  c_w.l(libinit2.o)
    0x080002f6   0x080002f6   0x00000000   Code   RO         5311    .ARM.Collect$$libinit$$0000002C  c_w.l(libinit2.o)
    0x080002f6   0x080002f6   0x00000000   Code   RO         5313    .ARM.Collect$$libinit$$0000002E  c_w.l(libinit2.o)
    0x080002f6   0x080002f6   0x00000000   Code   RO         5315    .ARM.Collect$$libinit$$00000030  c_w.l(libinit2.o)
    0x080002f6   0x080002f6   0x00000000   Code   RO         5317    .ARM.Collect$$libinit$$00000032  c_w.l(libinit2.o)
    0x080002f6   0x080002f6   0x00000002   Code   RO         5318    .ARM.Collect$$libinit$$00000033  c_w.l(libinit2.o)
    0x080002f8   0x080002f8   0x00000002   Code   RO         5562    .ARM.Collect$$libshutdown$$00000000  c_w.l(libshutdown.o)
    0x080002fa   0x080002fa   0x00000000   Code   RO         5514    .ARM.Collect$$libshutdown$$00000002  c_w.l(libshutdown2.o)
    0x080002fa   0x080002fa   0x00000000   Code   RO         5516    .ARM.Collect$$libshutdown$$00000004  c_w.l(libshutdown2.o)
    0x080002fa   0x080002fa   0x00000000   Code   RO         5518    .ARM.Collect$$libshutdown$$00000006  c_w.l(libshutdown2.o)
    0x080002fa   0x080002fa   0x00000000   Code   RO         5521    .ARM.Collect$$libshutdown$$00000009  c_w.l(libshutdown2.o)
    0x080002fa   0x080002fa   0x00000000   Code   RO         5524    .ARM.Collect$$libshutdown$$0000000C  c_w.l(libshutdown2.o)
    0x080002fa   0x080002fa   0x00000000   Code   RO         5526    .ARM.Collect$$libshutdown$$0000000E  c_w.l(libshutdown2.o)
    0x080002fa   0x080002fa   0x00000000   Code   RO         5529    .ARM.Collect$$libshutdown$$00000011  c_w.l(libshutdown2.o)
    0x080002fa   0x080002fa   0x00000002   Code   RO         5530    .ARM.Collect$$libshutdown$$00000012  c_w.l(libshutdown2.o)
    0x080002fc   0x080002fc   0x00000000   Code   RO         5197    .ARM.Collect$$rtentry$$00000000  c_w.l(__rtentry.o)
    0x080002fc   0x080002fc   0x00000000   Code   RO         5379    .ARM.Collect$$rtentry$$00000002  c_w.l(__rtentry2.o)
    0x080002fc   0x080002fc   0x00000006   Code   RO         5391    .ARM.Collect$$rtentry$$00000004  c_w.l(__rtentry4.o)
    0x08000302   0x08000302   0x00000000   Code   RO         5381    .ARM.Collect$$rtentry$$00000009  c_w.l(__rtentry2.o)
    0x08000302   0x08000302   0x00000004   Code   RO         5382    .ARM.Collect$$rtentry$$0000000A  c_w.l(__rtentry2.o)
    0x08000306   0x08000306   0x00000000   Code   RO         5384    .ARM.Collect$$rtentry$$0000000C  c_w.l(__rtentry2.o)
    0x08000306   0x08000306   0x00000008   Code   RO         5385    .ARM.Collect$$rtentry$$0000000D  c_w.l(__rtentry2.o)
    0x0800030e   0x0800030e   0x00000002   Code   RO         5503    .ARM.Collect$$rtexit$$00000000  c_w.l(rtexit.o)
    0x08000310   0x08000310   0x00000000   Code   RO         5536    .ARM.Collect$$rtexit$$00000002  c_w.l(rtexit2.o)
    0x08000310   0x08000310   0x00000004   Code   RO         5537    .ARM.Collect$$rtexit$$00000003  c_w.l(rtexit2.o)
    0x08000314   0x08000314   0x00000006   Code   RO         5538    .ARM.Collect$$rtexit$$00000004  c_w.l(rtexit2.o)
    0x0800031a   0x0800031a   0x00000002   PAD
    0x0800031c   0x0800031c   0x00000000   Code   RO         5405    .emb_text           c_w.l(maybetermalloc1.o)
    0x0800031c   0x0800031c   0x00000040   Code   RO         3299    .text               startup_stm32f40_41xxx.o
    0x0800035c   0x0800035c   0x0000005e   Code   RO         4994    .text               c_w.l(h1_alloc.o)
    0x080003ba   0x080003ba   0x0000004e   Code   RO         4996    .text               c_w.l(h1_free.o)
    0x08000408   0x08000408   0x0000001a   Code   RO         5052    .text               c_w.l(tolower.o)
    0x08000422   0x08000422   0x00000002   PAD
    0x08000424   0x08000424   0x00000034   Code   RO         5054    .text               c_w.l(vsnprintf.o)
    0x08000458   0x08000458   0x0000002c   Code   RO         5056    .text               c_w.l(__2sprintf.o)
    0x08000484   0x08000484   0x0000004e   Code   RO         5062    .text               c_w.l(_printf_pad.o)
    0x080004d2   0x080004d2   0x00000052   Code   RO         5064    .text               c_w.l(_printf_str.o)
    0x08000524   0x08000524   0x00000078   Code   RO         5066    .text               c_w.l(_printf_dec.o)
    0x0800059c   0x0800059c   0x00000094   Code   RO         5086    .text               c_w.l(_printf_hex_int_ll_ptr.o)
    0x08000630   0x08000630   0x00000188   Code   RO         5106    .text               c_w.l(__printf_flags_ss_wp.o)
    0x080007b8   0x080007b8   0x00000024   Code   RO         5117    .text               c_w.l(strstr.o)
    0x080007dc   0x080007dc   0x0000003e   Code   RO         5121    .text               c_w.l(strlen.o)
    0x0800081a   0x0800081a   0x00000096   Code   RO         5123    .text               c_w.l(strncmp.o)
    0x080008b0   0x080008b0   0x0000008a   Code   RO         5125    .text               c_w.l(rt_memcpy_v6.o)
    0x0800093a   0x0800093a   0x00000064   Code   RO         5127    .text               c_w.l(rt_memcpy_w.o)
    0x0800099e   0x0800099e   0x00000044   Code   RO         5129    .text               c_w.l(rt_memclr.o)
    0x080009e2   0x080009e2   0x0000004e   Code   RO         5131    .text               c_w.l(rt_memclr_w.o)
    0x08000a30   0x08000a30   0x00000006   Code   RO         5133    .text               c_w.l(heapauxi.o)
    0x08000a36   0x08000a36   0x00000002   PAD
    0x08000a38   0x08000a38   0x00000010   Code   RO         5198    .text               c_w.l(rt_ctype_table.o)
    0x08000a48   0x08000a48   0x00000008   Code   RO         5203    .text               c_w.l(rt_heap_descriptor_intlibspace.o)
    0x08000a50   0x08000a50   0x00000004   Code   RO         5205    .text               c_w.l(hguard.o)
    0x08000a54   0x08000a54   0x0000008a   Code   RO         5207    .text               c_w.l(init_alloc.o)
    0x08000ade   0x08000ade   0x0000000e   Code   RO         5211    .text               c_w.l(h1_init.o)
    0x08000aec   0x08000aec   0x00000016   Code   RO         5225    .text               c_w.l(_rserrno.o)
    0x08000b02   0x08000b02   0x00000024   Code   RO         5227    .text               c_w.l(_printf_truncate.o)
    0x08000b26   0x08000b26   0x000000b2   Code   RO         5229    .text               c_w.l(_printf_intcommon.o)
    0x08000bd8   0x08000bd8   0x00000028   Code   RO         5231    .text               c_w.l(_printf_charcount.o)
    0x08000c00   0x08000c00   0x0000041e   Code   RO         5233    .text               c_w.l(_printf_fp_dec.o)
    0x0800101e   0x0800101e   0x00000002   PAD
    0x08001020   0x08001020   0x00000030   Code   RO         5235    .text               c_w.l(_printf_char_common.o)
    0x08001050   0x08001050   0x0000000a   Code   RO         5237    .text               c_w.l(_sputc.o)
    0x0800105a   0x0800105a   0x00000010   Code   RO         5239    .text               c_w.l(_snputc.o)
    0x0800106a   0x0800106a   0x0000002c   Code   RO         5241    .text               c_w.l(_printf_char.o)
    0x08001096   0x08001096   0x00000002   PAD
    0x08001098   0x08001098   0x000000bc   Code   RO         5243    .text               c_w.l(_printf_wctomb.o)
    0x08001154   0x08001154   0x0000007c   Code   RO         5246    .text               c_w.l(_printf_longlong_dec.o)
    0x080011d0   0x080011d0   0x00000070   Code   RO         5252    .text               c_w.l(_printf_oct_int_ll.o)
    0x08001240   0x08001240   0x00000008   Code   RO         5375    .text               c_w.l(libspace.o)
    0x08001248   0x08001248   0x00000008   Code   RO         5396    .text               c_w.l(rt_locale_intlibspace.o)
    0x08001250   0x08001250   0x00000008   Code   RO         5401    .text               c_w.l(rt_errno_addr_intlibspace.o)
    0x08001258   0x08001258   0x00000034   Code   RO         5407    .text               c_w.l(h1_extend.o)
    0x0800128c   0x0800128c   0x0000008a   Code   RO         5411    .text               c_w.l(lludiv10.o)
    0x08001316   0x08001316   0x00000002   PAD
    0x08001318   0x08001318   0x000002fc   Code   RO         5413    .text               c_w.l(_printf_fp_hex.o)
    0x08001614   0x08001614   0x00000080   Code   RO         5416    .text               c_w.l(_printf_fp_infnan.o)
    0x08001694   0x08001694   0x0000002c   Code   RO         5420    .text               c_w.l(_printf_wchar.o)
    0x080016c0   0x080016c0   0x000000e4   Code   RO         5422    .text               c_w.l(bigflt0.o)
    0x080017a4   0x080017a4   0x00000040   Code   RO         5447    .text               c_w.l(_wcrtomb.o)
    0x080017e4   0x080017e4   0x0000000e   Code   RO         5455    .text               c_w.l(defsig_rtmem_outer.o)
    0x080017f2   0x080017f2   0x00000002   Code   RO         5472    .text               c_w.l(use_no_semi.o)
    0x080017f4   0x080017f4   0x00000000   Code   RO         5474    .text               c_w.l(indicate_semi.o)
    0x080017f4   0x080017f4   0x0000004a   Code   RO         5475    .text               c_w.l(sys_stackheap_outer.o)
    0x0800183e   0x0800183e   0x00000012   Code   RO         5481    .text               c_w.l(exit.o)
    0x08001850   0x08001850   0x0000000a   Code   RO         5483    .text               c_w.l(defsig_exit.o)
    0x0800185a   0x0800185a   0x00000002   PAD
    0x0800185c   0x0800185c   0x00000050   Code   RO         5485    .text               c_w.l(defsig_rtmem_inner.o)
    0x080018ac   0x080018ac   0x00000080   Code   RO         5487    .text               c_w.l(strcmpv7m.o)
    0x0800192c   0x0800192c   0x0000000c   Code   RO         5501    .text               c_w.l(sys_exit.o)
    0x08001938   0x08001938   0x00000032   Code   RO         5511    .text               c_w.l(defsig_general.o)
    0x0800196a   0x0800196a   0x0000000e   Code   RO         5533    .text               c_w.l(sys_wrch.o)
    0x08001978   0x08001978   0x0000003e   Code   RO         5425    CL$$btod_d2e        c_w.l(btod.o)
    0x080019b6   0x080019b6   0x00000046   Code   RO         5427    CL$$btod_d2e_denorm_low  c_w.l(btod.o)
    0x080019fc   0x080019fc   0x00000060   Code   RO         5426    CL$$btod_d2e_norm_op1  c_w.l(btod.o)
    0x08001a5c   0x08001a5c   0x00000338   Code   RO         5435    CL$$btod_div_common  c_w.l(btod.o)
    0x08001d94   0x08001d94   0x000000dc   Code   RO         5432    CL$$btod_e2e        c_w.l(btod.o)
    0x08001e70   0x08001e70   0x0000002a   Code   RO         5429    CL$$btod_ediv       c_w.l(btod.o)
    0x08001e9a   0x08001e9a   0x0000002a   Code   RO         5428    CL$$btod_emul       c_w.l(btod.o)
    0x08001ec4   0x08001ec4   0x00000244   Code   RO         5434    CL$$btod_mult_common  c_w.l(btod.o)
    0x08002108   0x08002108   0x000000b0   Code   RO         4505    i.BleStateCheck     bluetooth.o
    0x080021b8   0x080021b8   0x00000002   Code   RO         3175    i.BusFault_Handler  stm32f4xx_it.o
    0x080021ba   0x080021ba   0x00000002   PAD
    0x080021bc   0x080021bc   0x0000002c   Code   RO          509    i.DMA_ClearFlag     stm32f4xx_dma.o
    0x080021e8   0x080021e8   0x00000014   Code   RO          511    i.DMA_Cmd           stm32f4xx_dma.o
    0x080021fc   0x080021fc   0x00000124   Code   RO          512    i.DMA_DeInit        stm32f4xx_dma.o
    0x08002320   0x08002320   0x00000006   Code   RO          517    i.DMA_GetCurrDataCounter  stm32f4xx_dma.o
    0x08002326   0x08002326   0x00000002   PAD
    0x08002328   0x08002328   0x00000034   Code   RO          520    i.DMA_GetFlagStatus  stm32f4xx_dma.o
    0x0800235c   0x0800235c   0x00000054   Code   RO          523    i.DMA_Init          stm32f4xx_dma.o
    0x080023b0   0x080023b0   0x00000004   Code   RO          526    i.DMA_SetCurrDataCounter  stm32f4xx_dma.o
    0x080023b4   0x080023b4   0x00000002   Code   RO         3176    i.DebugMon_Handler  stm32f4xx_it.o
    0x080023b6   0x080023b6   0x00000002   PAD
    0x080023b8   0x080023b8   0x00000038   Code   RO         3806    i.EXTI0_IRQHandler  key.o
    0x080023f0   0x080023f0   0x00000038   Code   RO         3807    i.EXTI1_IRQHandler  key.o
    0x08002428   0x08002428   0x00000028   Code   RO         3808    i.EXTI4_IRQHandler  key.o
    0x08002450   0x08002450   0x00000028   Code   RO         3809    i.EXTI9_5_IRQHandler  key.o
    0x08002478   0x08002478   0x0000000c   Code   RO          769    i.EXTI_ClearITPendingBit  stm32f4xx_exti.o
    0x08002484   0x08002484   0x00000014   Code   RO          773    i.EXTI_GetITStatus  stm32f4xx_exti.o
    0x08002498   0x08002498   0x00000070   Code   RO          774    i.EXTI_Init         stm32f4xx_exti.o
    0x08002508   0x08002508   0x0000006c   Code   RO         3860    i.FifoIn            queue.o
    0x08002574   0x08002574   0x0000000a   Code   RO         3861    i.FifoInit          queue.o
    0x0800257e   0x0800257e   0x00000054   Code   RO         3862    i.FifoOut           queue.o
    0x080025d2   0x080025d2   0x00000078   Code   RO         1114    i.GPIO_Init         stm32f4xx_gpio.o
    0x0800264a   0x0800264a   0x00000020   Code   RO         1115    i.GPIO_PinAFConfig  stm32f4xx_gpio.o
    0x0800266a   0x0800266a   0x00000004   Code   RO         1121    i.GPIO_ResetBits    stm32f4xx_gpio.o
    0x0800266e   0x0800266e   0x00000004   Code   RO         1122    i.GPIO_SetBits      stm32f4xx_gpio.o
    0x08002672   0x08002672   0x00000002   PAD
    0x08002674   0x08002674   0x0000000c   Code   RO         4700    i.GetSystemTime     timer.o
    0x08002680   0x08002680   0x0000002c   Code   RO         4771    i.HTSensorMode      ht_sensor.o
    0x080026ac   0x080026ac   0x00000064   Code   RO         4772    i.HTSensor_Init     ht_sensor.o
    0x08002710   0x08002710   0x00000002   Code   RO         3177    i.HardFault_Handler  stm32f4xx_it.o
    0x08002712   0x08002712   0x00000002   PAD
    0x08002714   0x08002714   0x00000048   Code   RO         4773    i.IIC_Ack           ht_sensor.o
    0x0800275c   0x0800275c   0x00000048   Code   RO         4774    i.IIC_NAck          ht_sensor.o
    0x080027a4   0x080027a4   0x00000070   Code   RO         4775    i.IIC_Read_Byte     ht_sensor.o
    0x08002814   0x08002814   0x00000068   Code   RO         4776    i.IIC_Send_Byte     ht_sensor.o
    0x0800287c   0x0800287c   0x0000004c   Code   RO         4777    i.IIC_Start         ht_sensor.o
    0x080028c8   0x080028c8   0x0000004c   Code   RO         4778    i.IIC_Stop          ht_sensor.o
    0x08002914   0x08002914   0x0000005c   Code   RO         4779    i.IIC_Wait_Ack      ht_sensor.o
    0x08002970   0x08002970   0x00000010   Code   RO         1211    i.IWDG_Enable       stm32f4xx_iwdg.o
    0x08002980   0x08002980   0x00000004   Code   RO         3947    i.IWDG_Feed         iwdg.o
    0x08002984   0x08002984   0x00000024   Code   RO         3948    i.IWDG_Init         iwdg.o
    0x080029a8   0x080029a8   0x00000010   Code   RO         1213    i.IWDG_ReloadCounter  stm32f4xx_iwdg.o
    0x080029b8   0x080029b8   0x0000000c   Code   RO         1214    i.IWDG_SetPrescaler  stm32f4xx_iwdg.o
    0x080029c4   0x080029c4   0x0000000c   Code   RO         1215    i.IWDG_SetReload    stm32f4xx_iwdg.o
    0x080029d0   0x080029d0   0x0000000c   Code   RO         1216    i.IWDG_WriteAccessCmd  stm32f4xx_iwdg.o
    0x080029dc   0x080029dc   0x00000040   Code   RO         3810    i.KEYService        key.o
    0x08002a1c   0x08002a1c   0x000000d8   Code   RO         3811    i.KEY_Init          key.o
    0x08002af4   0x08002af4   0x0000004c   Code   RO         3330    i.LED_BreathingLight  led.o
    0x08002b40   0x08002b40   0x00000002   Code   RO         3178    i.MemManage_Handler  stm32f4xx_it.o
    0x08002b42   0x08002b42   0x00000002   PAD
    0x08002b44   0x08002b44   0x000000b4   Code   RO         3973    i.My_RTC_Init       rtc.o
    0x08002bf8   0x08002bf8   0x00000002   Code   RO         3179    i.NMI_Handler       stm32f4xx_it.o
    0x08002bfa   0x08002bfa   0x00000002   PAD
    0x08002bfc   0x08002bfc   0x0000005c   Code   RO         4048    i.NRF24L01StateCheck  nrf24l01.o
    0x08002c58   0x08002c58   0x0000004c   Code   RO         4049    i.NRF24L01_Check    nrf24l01.o
    0x08002ca4   0x08002ca4   0x000000c0   Code   RO         4050    i.NRF24L01_Init     nrf24l01.o
    0x08002d64   0x08002d64   0x00000058   Code   RO         4051    i.NRF24L01_RX_Mode  nrf24l01.o
    0x08002dbc   0x08002dbc   0x0000003c   Code   RO         4052    i.NRF24L01_Read_Buf  nrf24l01.o
    0x08002df8   0x08002df8   0x00000024   Code   RO         4053    i.NRF24L01_Read_Reg  nrf24l01.o
    0x08002e1c   0x08002e1c   0x00000038   Code   RO         4054    i.NRF24L01_RxPacket  nrf24l01.o
    0x08002e54   0x08002e54   0x00000058   Code   RO         4055    i.NRF24L01_SPI_Init  nrf24l01.o
    0x08002eac   0x08002eac   0x00000064   Code   RO         4056    i.NRF24L01_TX_Mode  nrf24l01.o
    0x08002f10   0x08002f10   0x00000058   Code   RO         4057    i.NRF24L01_TxPacket  nrf24l01.o
    0x08002f68   0x08002f68   0x0000003c   Code   RO         4058    i.NRF24L01_Write_Buf  nrf24l01.o
    0x08002fa4   0x08002fa4   0x0000002c   Code   RO         4059    i.NRF24L01_Write_Reg  nrf24l01.o
    0x08002fd0   0x08002fd0   0x00000064   Code   RO            3    i.NVIC_Init         misc.o
    0x08003034   0x08003034   0x00000014   Code   RO            4    i.NVIC_PriorityGroupConfig  misc.o
    0x08003048   0x08003048   0x0000003c   Code   RO         3397    i.OLED_Clear        oled.o
    0x08003084   0x08003084   0x0000001e   Code   RO         3399    i.OLED_Display_On   oled.o
    0x080030a2   0x080030a2   0x0000005e   Code   RO         3400    i.OLED_DrawBMP      oled.o
    0x08003100   0x08003100   0x0000003c   Code   RO         3401    i.OLED_IOInit       oled.o
    0x0800313c   0x0800313c   0x00000148   Code   RO         3402    i.OLED_Init         oled.o
    0x08003284   0x08003284   0x0000002c   Code   RO         3403    i.OLED_Set_Pos      oled.o
    0x080032b0   0x080032b0   0x00000048   Code   RO         3404    i.OLED_ShowCHinese  oled.o
    0x080032f8   0x080032f8   0x0000007c   Code   RO         3408    i.OLED_WR_Byte      oled.o
    0x08003374   0x08003374   0x00000108   Code   RO         3337    i.PWM_LEDInit       led.o
    0x0800347c   0x0800347c   0x0000000c   Code   RO         1348    i.PWR_BackupAccessCmd  stm32f4xx_pwr.o
    0x08003488   0x08003488   0x00000018   Code   RO         1351    i.PWR_DeInit        stm32f4xx_pwr.o
    0x080034a0   0x080034a0   0x00000002   Code   RO         3180    i.PendSV_Handler    stm32f4xx_it.o
    0x080034a2   0x080034a2   0x00000002   PAD
    0x080034a4   0x080034a4   0x0000003c   Code   RO         4780    i.PrintHTInfo       ht_sensor.o
    0x080034e0   0x080034e0   0x0000000a   Code   RO         3535    i.PrintfIOTPort2    uart.o
    0x080034ea   0x080034ea   0x0000000a   Code   RO         3537    i.PrintfIOTPort4    uart.o
    0x080034f4   0x080034f4   0x00000018   Code   RO         1470    i.RCC_AHB1PeriphClockCmd  stm32f4xx_rcc.o
    0x0800350c   0x0800350c   0x00000018   Code   RO         1479    i.RCC_APB1PeriphClockCmd  stm32f4xx_rcc.o
    0x08003524   0x08003524   0x00000018   Code   RO         1481    i.RCC_APB1PeriphResetCmd  stm32f4xx_rcc.o
    0x0800353c   0x0800353c   0x00000018   Code   RO         1482    i.RCC_APB2PeriphClockCmd  stm32f4xx_rcc.o
    0x08003554   0x08003554   0x00000018   Code   RO         1484    i.RCC_APB2PeriphResetCmd  stm32f4xx_rcc.o
    0x0800356c   0x0800356c   0x00000090   Code   RO         1491    i.RCC_GetClocksFreq  stm32f4xx_rcc.o
    0x080035fc   0x080035fc   0x00000034   Code   RO         1492    i.RCC_GetFlagStatus  stm32f4xx_rcc.o
    0x08003630   0x08003630   0x0000000c   Code   RO         1502    i.RCC_LSICmd        stm32f4xx_rcc.o
    0x0800363c   0x0800363c   0x0000000c   Code   RO         1514    i.RCC_RTCCLKCmd     stm32f4xx_rcc.o
    0x08003648   0x08003648   0x00000030   Code   RO         1515    i.RCC_RTCCLKConfig  stm32f4xx_rcc.o
    0x08003678   0x08003678   0x00000012   Code   RO         1807    i.RTC_Bcd2ToByte    stm32f4xx_rtc.o
    0x0800368a   0x0800368a   0x00000018   Code   RO         1809    i.RTC_ByteToBcd2    stm32f4xx_rtc.o
    0x080036a2   0x080036a2   0x00000002   PAD
    0x080036a4   0x080036a4   0x000000b0   Code   RO         1818    i.RTC_DeInit        stm32f4xx_rtc.o
    0x08003754   0x08003754   0x0000003c   Code   RO         1819    i.RTC_EnterInitMode  stm32f4xx_rtc.o
    0x08003790   0x08003790   0x00000010   Code   RO         1820    i.RTC_ExitInitMode  stm32f4xx_rtc.o
    0x080037a0   0x080037a0   0x0000004c   Code   RO         1823    i.RTC_GetDate       stm32f4xx_rtc.o
    0x080037ec   0x080037ec   0x00000050   Code   RO         1828    i.RTC_GetTime       stm32f4xx_rtc.o
    0x0800383c   0x0800383c   0x00000050   Code   RO         1833    i.RTC_Init          stm32f4xx_rtc.o
    0x0800388c   0x0800388c   0x00000014   Code   RO         1836    i.RTC_ReadBackupRegister  stm32f4xx_rtc.o
    0x080038a0   0x080038a0   0x00000098   Code   RO         1839    i.RTC_SetDate       stm32f4xx_rtc.o
    0x08003938   0x08003938   0x000000a0   Code   RO         1840    i.RTC_SetTime       stm32f4xx_rtc.o
    0x080039d8   0x080039d8   0x0000001c   Code   RO         3974    i.RTC_Set_Date      rtc.o
    0x080039f4   0x080039f4   0x0000001c   Code   RO         3975    i.RTC_Set_Time      rtc.o
    0x08003a10   0x08003a10   0x0000004c   Code   RO         1856    i.RTC_WaitForSynchro  stm32f4xx_rtc.o
    0x08003a5c   0x08003a5c   0x00000014   Code   RO         1859    i.RTC_WriteBackupRegister  stm32f4xx_rtc.o
    0x08003a70   0x08003a70   0x000000c8   Code   RO         4781    i.ReadHTSensorData  ht_sensor.o
    0x08003b38   0x08003b38   0x000000c4   Code   RO         4060    i.SPI1_Init         nrf24l01.o
    0x08003bfc   0x08003bfc   0x00000034   Code   RO         4061    i.SPI1_ReadWriteByte  nrf24l01.o
    0x08003c30   0x08003c30   0x0000001c   Code   RO         4062    i.SPI1_SetSpeed     nrf24l01.o
    0x08003c4c   0x08003c4c   0x00000014   Code   RO         2164    i.SPI_Cmd           stm32f4xx_spi.o
    0x08003c60   0x08003c60   0x0000000e   Code   RO         2172    i.SPI_I2S_GetFlagStatus  stm32f4xx_spi.o
    0x08003c6e   0x08003c6e   0x00000004   Code   RO         2175    i.SPI_I2S_ReceiveData  stm32f4xx_spi.o
    0x08003c72   0x08003c72   0x00000004   Code   RO         2176    i.SPI_I2S_SendData  stm32f4xx_spi.o
    0x08003c76   0x08003c76   0x00000038   Code   RO         2177    i.SPI_Init          stm32f4xx_spi.o
    0x08003cae   0x08003cae   0x00000002   Code   RO         3181    i.SVC_Handler       stm32f4xx_it.o
    0x08003cb0   0x08003cb0   0x00000030   Code   RO         2325    i.SYSCFG_EXTILineConfig  stm32f4xx_syscfg.o
    0x08003ce0   0x08003ce0   0x000000b4   Code   RO         3261    i.SetSysClock       system_stm32f4xx.o
    0x08003d94   0x08003d94   0x00000016   Code   RO         3541    i.Sizeofmsg         uart.o
    0x08003daa   0x08003daa   0x00000002   PAD
    0x08003dac   0x08003dac   0x00000014   Code   RO         3182    i.SysTick_Handler   stm32f4xx_it.o
    0x08003dc0   0x08003dc0   0x0000005c   Code   RO         3263    i.SystemInit        system_stm32f4xx.o
    0x08003e1c   0x08003e1c   0x000000b4   Code   RO         4701    i.TIM5_IRQHandler   timer.o
    0x08003ed0   0x08003ed0   0x00000064   Code   RO         4702    i.TIM5_Init         timer.o
    0x08003f34   0x08003f34   0x00000014   Code   RO         2380    i.TIM_ARRPreloadConfig  stm32f4xx_tim.o
    0x08003f48   0x08003f48   0x00000006   Code   RO         2387    i.TIM_ClearITPendingBit  stm32f4xx_tim.o
    0x08003f4e   0x08003f4e   0x00000014   Code   RO         2392    i.TIM_Cmd           stm32f4xx_tim.o
    0x08003f62   0x08003f62   0x00000016   Code   RO         2394    i.TIM_CtrlPWMOutputs  stm32f4xx_tim.o
    0x08003f78   0x08003f78   0x00000018   Code   RO         2413    i.TIM_GetITStatus   stm32f4xx_tim.o
    0x08003f90   0x08003f90   0x00000010   Code   RO         2417    i.TIM_ITConfig      stm32f4xx_tim.o
    0x08003fa0   0x08003fa0   0x00000080   Code   RO         2426    i.TIM_OC2Init       stm32f4xx_tim.o
    0x08004020   0x08004020   0x00000014   Code   RO         2429    i.TIM_OC2PreloadConfig  stm32f4xx_tim.o
    0x08004034   0x08004034   0x0000007c   Code   RO         2431    i.TIM_OC3Init       stm32f4xx_tim.o
    0x080040b0   0x080040b0   0x0000000c   Code   RO         2434    i.TIM_OC3PreloadConfig  stm32f4xx_tim.o
    0x080040bc   0x080040bc   0x00000060   Code   RO         2436    i.TIM_OC4Init       stm32f4xx_tim.o
    0x0800411c   0x0800411c   0x00000014   Code   RO         2438    i.TIM_OC4PreloadConfig  stm32f4xx_tim.o
    0x08004130   0x08004130   0x00000006   Code   RO         2441    i.TIM_PrescalerConfig  stm32f4xx_tim.o
    0x08004136   0x08004136   0x00000004   Code   RO         2455    i.TIM_SetCompare2   stm32f4xx_tim.o
    0x0800413a   0x0800413a   0x00000004   Code   RO         2456    i.TIM_SetCompare3   stm32f4xx_tim.o
    0x0800413e   0x0800413e   0x00000004   Code   RO         2457    i.TIM_SetCompare4   stm32f4xx_tim.o
    0x08004142   0x08004142   0x00000002   PAD
    0x08004144   0x08004144   0x0000007c   Code   RO         2464    i.TIM_TimeBaseInit  stm32f4xx_tim.o
    0x080041c0   0x080041c0   0x000000c4   Code   RO         3542    i.UART1Init         uart.o
    0x08004284   0x08004284   0x0000005c   Code   RO         3543    i.UART1Poll         uart.o
    0x080042e0   0x080042e0   0x000000d8   Code   RO         3544    i.UART1_DMA_Init    uart.o
    0x080043b8   0x080043b8   0x00000068   Code   RO         3547    i.UART1_SentMsgL    uart.o
    0x08004420   0x08004420   0x000000c4   Code   RO         3548    i.UART2Init         uart.o
    0x080044e4   0x080044e4   0x00000084   Code   RO         3549    i.UART2Poll         uart.o
    0x08004568   0x08004568   0x000000d4   Code   RO         3550    i.UART2_DMA_Init    uart.o
    0x0800463c   0x0800463c   0x00000068   Code   RO         3552    i.UART2_SentMsg     uart.o
    0x080046a4   0x080046a4   0x0000006c   Code   RO         3553    i.UART2_SentMsgL    uart.o
    0x08004710   0x08004710   0x00000080   Code   RO         3555    i.UART3Poll         uart.o
    0x08004790   0x08004790   0x000000c0   Code   RO         3559    i.UART4Init         uart.o
    0x08004850   0x08004850   0x0000008c   Code   RO         3560    i.UART4Poll         uart.o
    0x080048dc   0x080048dc   0x000000d8   Code   RO         3561    i.UART4_DMA_Init    uart.o
    0x080049b4   0x080049b4   0x00000068   Code   RO         3563    i.UART4_SentMsgL    uart.o
    0x08004a1c   0x08004a1c   0x00000006   Code   RO         2925    i.USART_ClearFlag   stm32f4xx_usart.o
    0x08004a22   0x08004a22   0x00000014   Code   RO         2929    i.USART_Cmd         stm32f4xx_usart.o
    0x08004a36   0x08004a36   0x00000010   Code   RO         2930    i.USART_DMACmd      stm32f4xx_usart.o
    0x08004a46   0x08004a46   0x0000000e   Code   RO         2932    i.USART_GetFlagStatus  stm32f4xx_usart.o
    0x08004a54   0x08004a54   0x000000ac   Code   RO         2936    i.USART_Init        stm32f4xx_usart.o
    0x08004b00   0x08004b00   0x00000088   Code   RO         3564    i.Uart1Read         uart.o
    0x08004b88   0x08004b88   0x00000084   Code   RO         3565    i.Uart2Read         uart.o
    0x08004c0c   0x08004c0c   0x00000084   Code   RO         3566    i.Uart3Read         uart.o
    0x08004c90   0x08004c90   0x00000088   Code   RO         3567    i.Uart4Read         uart.o
    0x08004d18   0x08004d18   0x00000002   Code   RO         3183    i.UsageFault_Handler  stm32f4xx_it.o
    0x08004d1a   0x08004d1a   0x00000002   PAD
    0x08004d1c   0x08004d1c   0x000000b4   Code   RO         4544    i.WifiStateCheck    wifi.o
    0x08004dd0   0x08004dd0   0x00000030   Code   RO         5356    i.__ARM_fpclassify  m_wm.l(fpclassify.o)
    0x08004e00   0x08004e00   0x00000c50   Code   RO         5181    i.__hardfp_pow      m_wm.l(pow.o)
    0x08005a50   0x08005a50   0x000000f8   Code   RO         5358    i.__kernel_poly     m_wm.l(poly.o)
    0x08005b48   0x08005b48   0x00000030   Code   RO         5342    i.__mathlib_dbl_divzero  m_wm.l(dunder.o)
    0x08005b78   0x08005b78   0x00000014   Code   RO         5344    i.__mathlib_dbl_infnan2  m_wm.l(dunder.o)
    0x08005b8c   0x08005b8c   0x00000004   PAD
    0x08005b90   0x08005b90   0x00000020   Code   RO         5345    i.__mathlib_dbl_invalid  m_wm.l(dunder.o)
    0x08005bb0   0x08005bb0   0x00000020   Code   RO         5346    i.__mathlib_dbl_overflow  m_wm.l(dunder.o)
    0x08005bd0   0x08005bd0   0x00000020   Code   RO         5348    i.__mathlib_dbl_underflow  m_wm.l(dunder.o)
    0x08005bf0   0x08005bf0   0x0000000e   Code   RO         5099    i._is_digit         c_w.l(__printf_wp.o)
    0x08005bfe   0x08005bfe   0x00000002   PAD
    0x08005c00   0x08005c00   0x000000a8   Code   RO         4506    i.ble_init          bluetooth.o
    0x08005ca8   0x08005ca8   0x0000018c   Code   RO         4507    i.bluetooth_msg_porcess  bluetooth.o
    0x08005e34   0x08005e34   0x00000048   Code   RO         4176    i.cJSON_Delete      cjson.o
    0x08005e7c   0x08005e7c   0x0000001c   Code   RO         4185    i.cJSON_GetObjectItem  cjson.o
    0x08005e98   0x08005e98   0x0000001c   Code   RO         4189    i.cJSON_New_Item    cjson.o
    0x08005eb4   0x08005eb4   0x00000008   Code   RO         4190    i.cJSON_Parse       cjson.o
    0x08005ebc   0x08005ebc   0x00000060   Code   RO         4191    i.cJSON_ParseWithOpts  cjson.o
    0x08005f1c   0x08005f1c   0x00000042   Code   RO         4197    i.cJSON_strcasecmp  cjson.o
    0x08005f5e   0x08005f5e   0x00000002   PAD
    0x08005f60   0x08005f60   0x00000034   Code   RO         4545    i.connect_server    wifi.o
    0x08005f94   0x08005f94   0x00000078   Code   RO         4546    i.connect_wifi_network  wifi.o
    0x0800600c   0x0800600c   0x00000018   Code   RO         3184    i.delay_ms          stm32f4xx_it.o
    0x08006024   0x08006024   0x00000010   Code   RO         3185    i.delay_us          stm32f4xx_it.o
    0x08006034   0x08006034   0x00000036   Code   RO         4851    i.diag_cmd_compare  msg_deal.o
    0x0800606a   0x0800606a   0x00000002   PAD
    0x0800606c   0x0800606c   0x00000010   Code   RO         4852    i.diag_cmd_complete  msg_deal.o
    0x0800607c   0x0800607c   0x00000118   Code   RO         4853    i.diag_cmd_input    msg_deal.o
    0x08006194   0x08006194   0x0000012a   Code   RO         4854    i.diag_cmd_para_parse  msg_deal.o
    0x080062be   0x080062be   0x00000002   PAD
    0x080062c0   0x080062c0   0x0000015c   Code   RO         4855    i.diag_cmd_process  msg_deal.o
    0x0800641c   0x0800641c   0x00000018   Code   RO         4856    i.diag_cmd_start    msg_deal.o
    0x08006434   0x08006434   0x00000028   Code   RO         4857    i.diag_help         msg_deal.o
    0x0800645c   0x0800645c   0x00000034   Code   RO         4547    i.entry_send_state  wifi.o
    0x08006490   0x08006490   0x00000018   Code   RO         5171    i.fabs              m_wm.l(fabs.o)
    0x080064a8   0x080064a8   0x000000b0   Code   RO         4858    i.find_cmd          msg_deal.o
    0x08006558   0x08006558   0x00000038   Code   RO         4548    i.get_data_str_index  wifi.o
    0x08006590   0x08006590   0x00000038   Code   RO         4549    i.get_network_time_cmds  wifi.o
    0x080065c8   0x080065c8   0x00000114   Code   RO         4550    i.get_wifi_info_data  wifi.o
    0x080066dc   0x080066dc   0x000000d8   Code   RO         4551    i.init_wifi_network  wifi.o
    0x080067b4   0x080067b4   0x000000a8   Code   RO         3305    i.main              main.o
    0x0800685c   0x0800685c   0x000000e4   Code   RO         4063    i.nrf_communication_service_msg_process  nrf24l01.o
    0x08006940   0x08006940   0x000000c0   Code   RO         4552    i.paraing_time_string  wifi.o
    0x08006a00   0x08006a00   0x00000088   Code   RO         4201    i.parse_array       cjson.o
    0x08006a88   0x08006a88   0x000000a6   Code   RO         4202    i.parse_hex4        cjson.o
    0x08006b2e   0x08006b2e   0x00000002   PAD
    0x08006b30   0x08006b30   0x0000018c   Code   RO         4203    i.parse_number      cjson.o
    0x08006cbc   0x08006cbc   0x000000b4   Code   RO         4204    i.parse_object      cjson.o
    0x08006d70   0x08006d70   0x0000015c   Code   RO         4205    i.parse_string      cjson.o
    0x08006ecc   0x08006ecc   0x000000b4   Code   RO         4206    i.parse_value       cjson.o
    0x08006f80   0x08006f80   0x0000002c   Code   RO         4553    i.parsing_the_str   wifi.o
    0x08006fac   0x08006fac   0x00000170   Code   RO         4554    i.parsing_time_json_info  wifi.o
    0x0800711c   0x0800711c   0x00000234   Code   RO         4555    i.parsing_weather_json_info  wifi.o
    0x08007350   0x08007350   0x00000068   Code   RO         4556    i.parsing_wifi_mac_data  wifi.o
    0x080073b8   0x080073b8   0x00000068   Code   RO         4557    i.parsing_wifi_signal_info  wifi.o
    0x08007420   0x08007420   0x00000040   Code   RO         4859    i.periodic_task_process  msg_deal.o
    0x08007460   0x08007460   0x00000058   Code   RO         4860    i.print_weather_and_time_info  msg_deal.o
    0x080074b8   0x080074b8   0x00000174   Code   RO         4558    i.print_wifi_weather_time_info  wifi.o
    0x0800762c   0x0800762c   0x00000054   Code   RO         3865    i.queue_in          queue.o
    0x08007680   0x08007680   0x0000000a   Code   RO         3866    i.queue_init        queue.o
    0x0800768a   0x0800768a   0x0000005e   Code   RO         3867    i.queue_out         queue.o
    0x080076e8   0x080076e8   0x00000034   Code   RO         4559    i.quiry_wifi        wifi.o
    0x0800771c   0x0800771c   0x00000034   Code   RO         4560    i.quit_network_connect_cmd  wifi.o
    0x08007750   0x08007750   0x00000034   Code   RO         4561    i.quit_send_data_mode_cmd  wifi.o
    0x08007784   0x08007784   0x00000004   Code   RO         3568    i.rt_hw_console_output  uart.o
    0x08007788   0x08007788   0x00000034   Code   RO         3572    i.rt_kprintf        uart.o
    0x080077bc   0x080077bc   0x00000020   Code   RO         3573    i.rt_kprintf2       uart.o
    0x080077dc   0x080077dc   0x00000034   Code   RO         4562    i.send_data         wifi.o
    0x08007810   0x08007810   0x00000034   Code   RO         4563    i.send_weather_data  wifi.o
    0x08007844   0x08007844   0x00000044   Code   RO         4564    i.set_send_mode     wifi.o
    0x08007888   0x08007888   0x00000018   Code   RO         4861    i.shell_init        msg_deal.o
    0x080078a0   0x080078a0   0x00000040   Code   RO         4862    i.shell_process     msg_deal.o
    0x080078e0   0x080078e0   0x00000056   Code   RO         3412    i.show_common_string  oled.o
    0x08007936   0x08007936   0x00000002   PAD
    0x08007938   0x08007938   0x000000a4   Code   RO         3413    i.show_date_str     oled.o
    0x080079dc   0x080079dc   0x000003f4   Code   RO         4960    i.show_interface_oled  show.o
    0x08007dd0   0x08007dd0   0x00000044   Code   RO         3414    i.show_line         oled.o
    0x08007e14   0x08007e14   0x000001bc   Code   RO         3415    i.show_oled_char    oled.o
    0x08007fd0   0x08007fd0   0x00000056   Code   RO         3416    i.show_t_rh_string  oled.o
    0x08008026   0x08008026   0x00000034   Code   RO         3417    i.show_time_str     oled.o
    0x0800805a   0x0800805a   0x00000014   Code   RO         4213    i.skip              cjson.o
    0x0800806e   0x0800806e   0x0000006e   Code   RO         5363    i.sqrt              m_wm.l(sqrt.o)
    0x080080dc   0x080080dc   0x00000020   Code   RO         4863    i.test2             msg_deal.o
    0x080080fc   0x080080fc   0x0000002c   Code   RO         4864    i.test3             msg_deal.o
    0x08008128   0x08008128   0x00000028   Code   RO         4961    i.wifi_bmp_clear    show.o
    0x08008150   0x08008150   0x000001dc   Code   RO         4566    i.wifi_msg_process  wifi.o
    0x0800832c   0x0800832c   0x0000002c   Code   RO         5450    locale$$code        c_w.l(lc_ctype_c.o)
    0x08008358   0x08008358   0x0000002c   Code   RO         5453    locale$$code        c_w.l(lc_numeric_c.o)
    0x08008384   0x08008384   0x00000018   Code   RO         5319    x$fpl$basic         fz_wm.l(basic.o)
    0x0800839c   0x0800839c   0x00000150   Code   RO         5137    x$fpl$dadd          fz_wm.l(daddsub_clz.o)
    0x080084ec   0x080084ec   0x00000010   Code   RO         5464    x$fpl$dcheck1       fz_wm.l(dcheck1.o)
    0x080084fc   0x080084fc   0x00000018   Code   RO         5321    x$fpl$dcmpinf       fz_wm.l(dcmpi.o)
    0x08008514   0x08008514   0x000002b0   Code   RO         5324    x$fpl$ddiv          fz_wm.l(ddiv.o)
    0x080087c4   0x080087c4   0x0000005e   Code   RO         5145    x$fpl$dfix          fz_wm.l(dfix.o)
    0x08008822   0x08008822   0x0000002e   Code   RO         5154    x$fpl$dflt          fz_wm.l(dflt_clz.o)
    0x08008850   0x08008850   0x00000078   Code   RO         5159    x$fpl$dleqf         fz_wm.l(dleqf.o)
    0x080088c8   0x080088c8   0x00000154   Code   RO         5161    x$fpl$dmul          fz_wm.l(dmul.o)
    0x08008a1c   0x08008a1c   0x0000009c   Code   RO         5327    x$fpl$dnaninf       fz_wm.l(dnaninf.o)
    0x08008ab8   0x08008ab8   0x0000000c   Code   RO         5329    x$fpl$dretinf       fz_wm.l(dretinf.o)
    0x08008ac4   0x08008ac4   0x0000006c   Code   RO         5163    x$fpl$drleqf        fz_wm.l(drleqf.o)
    0x08008b30   0x08008b30   0x00000016   Code   RO         5138    x$fpl$drsb          fz_wm.l(daddsub_clz.o)
    0x08008b46   0x08008b46   0x00000002   PAD
    0x08008b48   0x08008b48   0x00000198   Code   RO         5466    x$fpl$dsqrt         fz_wm.l(dsqrt_umaal.o)
    0x08008ce0   0x08008ce0   0x000001d4   Code   RO         5139    x$fpl$dsub          fz_wm.l(daddsub_clz.o)
    0x08008eb4   0x08008eb4   0x0000000a   Code   RO         5468    x$fpl$fpinit        fz_wm.l(fpinit.o)
    0x08008ebe   0x08008ebe   0x00000004   Code   RO         5167    x$fpl$printf1       fz_wm.l(printf1.o)
    0x08008ec2   0x08008ec2   0x00000004   Code   RO         5333    x$fpl$printf2       fz_wm.l(printf2.o)
    0x08008ec6   0x08008ec6   0x00000064   Code   RO         5499    x$fpl$retnan        fz_wm.l(retnan.o)
    0x08008f2a   0x08008f2a   0x0000005c   Code   RO         5339    x$fpl$scalbn        fz_wm.l(scalbn.o)
    0x08008f86   0x08008f86   0x00000030   Code   RO         5531    x$fpl$trapveneer    fz_wm.l(trapv.o)
    0x08008fb6   0x08008fb6   0x00000000   Code   RO         5341    x$fpl$usenofp       fz_wm.l(usenofp.o)
    0x08008fb6   0x08008fb6   0x00000002   PAD
    0x08008fb8   0x08008fb8   0x00000020   Data   RO         3306    .constdata          main.o
    0x08008fd8   0x08008fd8   0x0000000a   Data   RO         4065    .constdata          nrf24l01.o
    0x08008fe2   0x08008fe2   0x00000007   Data   RO         4215    .constdata          cjson.o
    0x08008fe9   0x08008fe9   0x00000228   Data   RO         4746    .constdata          oledfont.o
    0x08009211   0x08009211   0x00000160   Data   RO         4747    .constdata          oledfont.o
    0x08009371   0x08009371   0x000005f0   Data   RO         4748    .constdata          oledfont.o
    0x08009961   0x08009961   0x00000028   Data   RO         5087    .constdata          c_w.l(_printf_hex_int_ll_ptr.o)
    0x08009989   0x08009989   0x00000011   Data   RO         5107    .constdata          c_w.l(__printf_flags_ss_wp.o)
    0x0800999a   0x0800999a   0x00000006   PAD
    0x080099a0   0x080099a0   0x00000088   Data   RO         5184    .constdata          m_wm.l(pow.o)
    0x08009a28   0x08009a28   0x00000008   Data   RO         5244    .constdata          c_w.l(_printf_wctomb.o)
    0x08009a30   0x08009a30   0x00000008   Data   RO         5360    .constdata          m_wm.l(qnan.o)
    0x08009a38   0x08009a38   0x00000026   Data   RO         5414    .constdata          c_w.l(_printf_fp_hex.o)
    0x08009a5e   0x08009a5e   0x00000002   PAD
    0x08009a60   0x08009a60   0x00000094   Data   RO         5423    .constdata          c_w.l(bigflt0.o)
    0x08009af4   0x08009af4   0x0000014b   Data   RO         4867    .conststring        msg_deal.o
    0x08009c3f   0x08009c3f   0x00000001   PAD
    0x08009c40   0x08009c40   0x00000020   Data   RO         5563    Region$$Table       anon$$obj.o
    0x08009c60   0x08009c60   0x00000110   Data   RO         5449    locale$$data        c_w.l(lc_ctype_c.o)
    0x08009d70   0x08009d70   0x0000001c   Data   RO         5452    locale$$data        c_w.l(lc_numeric_c.o)


    Execution Region RW_IRAM1 (Exec base: 0x20000000, Load base: 0x08009d8c, Size: 0x0001a568, Max: 0x00020000, ABSOLUTE, COMPRESSED[0x000004c0])

    Exec Addr    Load Addr    Size         Type   Attr      Idx    E Section Name        Object

    0x20000000   COMPRESSED   0x00000010   Data   RW         1523    .data               stm32f4xx_rcc.o
    0x20000010   COMPRESSED   0x00000004   Data   RW         3186    .data               stm32f4xx_it.o
    0x20000014   COMPRESSED   0x00000014   Data   RW         3264    .data               system_stm32f4xx.o
    0x20000028   COMPRESSED   0x00000004   Data   RW         3338    .data               led.o
    0x2000002c   COMPRESSED   0x00004040   Data   RW         3578    .data               uart.o
    0x2000406c   COMPRESSED   0x00000002   Data   RW         3579    .data               uart.o
    0x2000406e   COMPRESSED   0x00000002   PAD
    0x20004070   COMPRESSED   0x00000008   Data   RW         3812    .data               key.o
    0x20004078   COMPRESSED   0x0000000c   Data   RW         4216    .data               cjson.o
    0x20004084   COMPRESSED   0x00000060   Data   RW         4508    .data               bluetooth.o
    0x200040e4   COMPRESSED   0x000006bc   Data   RW         4568    .data               wifi.o
    0x200047a0   COMPRESSED   0x00000004   Data   RW         4703    .data               timer.o
    0x200047a4   COMPRESSED   0x00000200   Data   RW         4738    .data               bmp.o
    0x200049a4   COMPRESSED   0x000000fc   Data   RW         4739    .data               bmp.o
    0x20004aa0   COMPRESSED   0x00000016   Data   RW         4751    .data               oledfont.o
    0x20004ab6   COMPRESSED   0x00000020   Data   RW         4754    .data               oledfont.o
    0x20004ad6   COMPRESSED   0x00000010   Data   RW         4756    .data               oledfont.o
    0x20004ae6   COMPRESSED   0x00000008   Data   RW         4759    .data               oledfont.o
    0x20004aee   COMPRESSED   0x000000b0   Data   RW         4760    .data               oledfont.o
    0x20004b9e   COMPRESSED   0x00000080   Data   RW         4761    .data               oledfont.o
    0x20004c1e   COMPRESSED   0x00000020   Data   RW         4762    .data               oledfont.o
    0x20004c3e   COMPRESSED   0x00000002   PAD
    0x20004c40   COMPRESSED   0x00000090   Data   RW         4868    .data               msg_deal.o
    0x20004cd0   COMPRESSED   0x00000008   Data   RW         4963    .data               show.o
    0x20004cd8        -       0x00001000   Zero   RW         3576    .bss                uart.o
    0x20005cd8        -       0x00005180   Zero   RW         3577    .bss                uart.o
    0x2000ae58        -       0x00000108   Zero   RW         3868    .bss                queue.o
    0x2000af60        -       0x00000108   Zero   RW         3869    .bss                queue.o
    0x2000b068        -       0x00001084   Zero   RW         3870    .bss                queue.o
    0x2000c0ec        -       0x00000108   Zero   RW         3871    .bss                queue.o
    0x2000c1f4        -       0x00000108   Zero   RW         3872    .bss                queue.o
    0x2000c2fc        -       0x00001084   Zero   RW         3873    .bss                queue.o
    0x2000d380        -       0x00002008   Zero   RW         3874    .bss                queue.o
    0x2000f388        -       0x00002008   Zero   RW         3875    .bss                queue.o
    0x20011390        -       0x00002008   Zero   RW         3876    .bss                queue.o
    0x20013398        -       0x00002008   Zero   RW         3877    .bss                queue.o
    0x200153a0        -       0x00002008   Zero   RW         3878    .bss                queue.o
    0x200173a8        -       0x00000040   Zero   RW         4064    .bss                nrf24l01.o
    0x200173e8        -       0x000000b0   Zero   RW         4567    .bss                wifi.o
    0x20017498        -       0x00000050   Zero   RW         4865    .bss                msg_deal.o
    0x200174e8        -       0x0000000c   Zero   RW         4866    .bss                msg_deal.o
    0x200174f4        -       0x00000014   Zero   RW         4962    .bss                show.o
    0x20017508        -       0x00000060   Zero   RW         5376    .bss                c_w.l(libspace.o)
    0x20017568        -       0x00001000   Zero   RW         3297    HEAP                startup_stm32f40_41xxx.o
    0x20018568        -       0x00002000   Zero   RW         3296    STACK               startup_stm32f40_41xxx.o


==============================================================================

Image component sizes


      Code (inc. data)   RO Data    RW Data    ZI Data      Debug   Object Name

       740        208          0         96          0      30060   bluetooth.o
         0          0          0        764          0        720   bmp.o
      1724         94          7         12          0      15050   cjson.o
      1008        170          0          0          0       7479   ht_sensor.o
        40          0          0          0          0       1124   iwdg.o
       472         60          0          8          0       4346   key.o
       340         18          0          4          0       2202   led.o
       168         18         32          0          0      27338   main.o
       120         14          0          0          0     307191   misc.o
      1552        388        331        144         92      13964   msg_deal.o
      1484        190         10          0         64      13119   nrf24l01.o
      1712         36          0          0          0      12687   oled.o
         0          0       2424        414          0       1365   oledfont.o
       390          0          0          0      50512       9372   queue.o
       236         18          0          0          0       2834   rtc.o
      1052        202          0          8         20       3615   show.o
        64         26        392          0      12288        924   startup_stm32f40_41xxx.o
       502         48          0          0          0       6492   stm32f4xx_dma.o
       144         14          0          0          0       2524   stm32f4xx_exti.o
       160          0          0          0          0       3283   stm32f4xx_gpio.o
        76         14          0          4          0       6728   stm32f4xx_it.o
        68         30          0          0          0      21318   stm32f4xx_iwdg.o
        36          6          0          0          0       1203   stm32f4xx_pwr.o
       388         68          0         16          0       9273   stm32f4xx_rcc.o
       958         78          0          0          0      10775   stm32f4xx_rtc.o
        98          0          0          0          0       3998   stm32f4xx_spi.o
        48          6          0          0          0        752   stm32f4xx_syscfg.o
       650         52          0          0          0      13972   stm32f4xx_tim.o
       228          8          0          0          0       4508   stm32f4xx_usart.o
       272         36          0         20          0       2145   system_stm32f4xx.o
       292         32          0          4          0       2335   timer.o
      2806        268          0      16450      24960      23600   uart.o
      3560       1190          0       1724        176      19255   wifi.o

    ----------------------------------------------------------------------
     21422       3292       3229      19672      88112     585551   Object Totals
         0          0         32          0          0          0   (incl. Generated)
        34          0          1          4          0          0   (incl. Padding)

    ----------------------------------------------------------------------

      Code (inc. data)   RO Data    RW Data    ZI Data      Debug   Library Member Name

        44          6          0          0          0         84   __2sprintf.o
        90          0          0          0          0          0   __dczerorl2.o
         8          0          0          0          0         68   __main.o
       392          4         17          0          0         92   __printf_flags_ss_wp.o
        14          0          0          0          0         68   __printf_wp.o
         0          0          0          0          0          0   __rtentry.o
        12          0          0          0          0          0   __rtentry2.o
         6          0          0          0          0          0   __rtentry4.o
        52          8          0          0          0          0   __scatter.o
        28          0          0          0          0          0   __scatter_zi.o
         6          0          0          0          0          0   _printf_a.o
         6          0          0          0          0          0   _printf_c.o
        44          0          0          0          0        108   _printf_char.o
        48          6          0          0          0         96   _printf_char_common.o
        40          0          0          0          0         68   _printf_charcount.o
         6          0          0          0          0          0   _printf_d.o
       120         16          0          0          0         92   _printf_dec.o
         6          0          0          0          0          0   _printf_e.o
         6          0          0          0          0          0   _printf_f.o
      1054          0          0          0          0        216   _printf_fp_dec.o
       764          8         38          0          0        100   _printf_fp_hex.o
       128         16          0          0          0         84   _printf_fp_infnan.o
         6          0          0          0          0          0   _printf_g.o
       148          4         40          0          0        160   _printf_hex_int_ll_ptr.o
         6          0          0          0          0          0   _printf_i.o
       178          0          0          0          0         88   _printf_intcommon.o
        10          0          0          0          0          0   _printf_l.o
         6          0          0          0          0          0   _printf_lc.o
        10          0          0          0          0          0   _printf_ll.o
         6          0          0          0          0          0   _printf_lld.o
         6          0          0          0          0          0   _printf_lli.o
         6          0          0          0          0          0   _printf_llo.o
         6          0          0          0          0          0   _printf_llu.o
         6          0          0          0          0          0   _printf_llx.o
       124         16          0          0          0         92   _printf_longlong_dec.o
         6          0          0          0          0          0   _printf_ls.o
         6          0          0          0          0          0   _printf_n.o
         6          0          0          0          0          0   _printf_o.o
       112         10          0          0          0        124   _printf_oct_int_ll.o
         6          0          0          0          0          0   _printf_p.o
        78          0          0          0          0        108   _printf_pad.o
         0          0          0          0          0          0   _printf_percent.o
         4          0          0          0          0          0   _printf_percent_end.o
         6          0          0          0          0          0   _printf_s.o
        82          0          0          0          0         80   _printf_str.o
        36          0          0          0          0         84   _printf_truncate.o
         6          0          0          0          0          0   _printf_u.o
        44          0          0          0          0        108   _printf_wchar.o
       188          6          8          0          0         92   _printf_wctomb.o
         6          0          0          0          0          0   _printf_x.o
        22          0          0          0          0        100   _rserrno.o
        16          0          0          0          0         68   _snputc.o
        10          0          0          0          0         68   _sputc.o
        64          0          0          0          0         92   _wcrtomb.o
       228          4        148          0          0         96   bigflt0.o
      1936        128          0          0          0        672   btod.o
        10          0          0          0          0         68   defsig_exit.o
        50          0          0          0          0         88   defsig_general.o
        80         58          0          0          0         76   defsig_rtmem_inner.o
        14          0          0          0          0         80   defsig_rtmem_outer.o
        18          0          0          0          0         80   exit.o
        94          0          0          0          0         80   h1_alloc.o
        52          0          0          0          0         68   h1_extend.o
        78          0          0          0          0         80   h1_free.o
        14          0          0          0          0         84   h1_init.o
         6          0          0          0          0        152   heapauxi.o
         4          0          0          0          0        136   hguard.o
         0          0          0          0          0          0   indicate_semi.o
       138          0          0          0          0        168   init_alloc.o
        44         10        272          0          0         76   lc_ctype_c.o
        44         10         28          0          0         76   lc_numeric_c.o
         2          0          0          0          0          0   libinit.o
        42          0          0          0          0          0   libinit2.o
         2          0          0          0          0          0   libshutdown.o
         2          0          0          0          0          0   libshutdown2.o
         8          4          0          0         96         68   libspace.o
       138          0          0          0          0         80   lludiv10.o
         0          0          0          0          0          0   maybetermalloc1.o
        16          4          0          0          0         76   rt_ctype_table.o
         8          4          0          0          0         68   rt_errno_addr_intlibspace.o
         8          4          0          0          0         68   rt_heap_descriptor_intlibspace.o
         8          4          0          0          0         68   rt_locale_intlibspace.o
        68          0          0          0          0         68   rt_memclr.o
        78          0          0          0          0         80   rt_memclr_w.o
       138          0          0          0          0         68   rt_memcpy_v6.o
       100          0          0          0          0         80   rt_memcpy_w.o
         2          0          0          0          0          0   rtexit.o
        10          0          0          0          0          0   rtexit2.o
       128          0          0          0          0         68   strcmpv7m.o
        62          0          0          0          0         76   strlen.o
       150          0          0          0          0         80   strncmp.o
        36          0          0          0          0         80   strstr.o
        12          4          0          0          0         68   sys_exit.o
        74          0          0          0          0         80   sys_stackheap_outer.o
        14          0          0          0          0         76   sys_wrch.o
        26          0          0          0          0         76   tolower.o
         2          0          0          0          0         68   use_no_semi.o
        52          4          0          0          0         80   vsnprintf.o
        24          0          0          0          0        164   basic.o
       826         16          0          0          0        492   daddsub_clz.o
        16          4          0          0          0        116   dcheck1.o
        24          0          0          0          0        116   dcmpi.o
       688        140          0          0          0        256   ddiv.o
        94          4          0          0          0        140   dfix.o
        46          0          0          0          0        116   dflt_clz.o
       120          4          0          0          0        140   dleqf.o
       340         12          0          0          0        152   dmul.o
       156          4          0          0          0        140   dnaninf.o
        12          0          0          0          0        116   dretinf.o
       108          0          0          0          0        128   drleqf.o
       408         56          0          0          0        168   dsqrt_umaal.o
        10          0          0          0          0        116   fpinit.o
         4          0          0          0          0        116   printf1.o
         4          0          0          0          0        116   printf2.o
       100          0          0          0          0        116   retnan.o
        92          0          0          0          0        116   scalbn.o
        48          0          0          0          0        116   trapv.o
         0          0          0          0          0          0   usenofp.o
       164         44          0          0          0        620   dunder.o
        24          0          0          0          0        124   fabs.o
        48          0          0          0          0        124   fpclassify.o
       248          0          0          0          0        152   poly.o
      3152        296        136          0          0        352   pow.o
         0          0          8          0          0          0   qnan.o
       110          0          0          0          0        148   sqrt.o

    ----------------------------------------------------------------------
     14978        918        703          0         96      10356   Library Totals
        26          0          8          0          0          0   (incl. Padding)

    ----------------------------------------------------------------------

      Code (inc. data)   RO Data    RW Data    ZI Data      Debug   Library Name

      8086        338        551          0         96       5896   c_w.l
      3120        240          0          0          0       2940   fz_wm.l
      3746        340        144          0          0       1520   m_wm.l

    ----------------------------------------------------------------------
     14978        918        703          0         96      10356   Library Totals

    ----------------------------------------------------------------------

==============================================================================


      Code (inc. data)   RO Data    RW Data    ZI Data      Debug   

     36400       4210       3932      19672      88208     567427   Grand Totals
     36400       4210       3932       1216      88208     567427   ELF Image Totals (compressed)
     36400       4210       3932       1216          0          0   ROM Totals

==============================================================================

    Total RO  Size (Code + RO Data)                40332 (  39.39kB)
    Total RW  Size (RW Data + ZI Data)            107880 ( 105.35kB)
    Total ROM Size (Code + RO Data + RW Data)      41548 (  40.57kB)

==============================================================================

